
coremark.rv32im.bare.riscv:     file format elf32-littleriscv


Disassembly of section .text.init:

80000000 <_start>:
80000000:	00000093          	li	ra,0
80000004:	00000113          	li	sp,0
80000008:	00000193          	li	gp,0
8000000c:	00000213          	li	tp,0
80000010:	00000293          	li	t0,0
80000014:	00000313          	li	t1,0
80000018:	00000393          	li	t2,0
8000001c:	00000413          	li	s0,0
80000020:	00000493          	li	s1,0
80000024:	00000513          	li	a0,0
80000028:	00000593          	li	a1,0
8000002c:	00000613          	li	a2,0
80000030:	00000693          	li	a3,0
80000034:	00000713          	li	a4,0
80000038:	00000793          	li	a5,0
8000003c:	00000813          	li	a6,0
80000040:	00000893          	li	a7,0
80000044:	00000913          	li	s2,0
80000048:	00000993          	li	s3,0
8000004c:	00000a13          	li	s4,0
80000050:	00000a93          	li	s5,0
80000054:	00000b13          	li	s6,0
80000058:	00000b93          	li	s7,0
8000005c:	00000c13          	li	s8,0
80000060:	00000c93          	li	s9,0
80000064:	00000d13          	li	s10,0
80000068:	00000d93          	li	s11,0
8000006c:	00000e13          	li	t3,0
80000070:	00000e93          	li	t4,0
80000074:	00000f13          	li	t5,0
80000078:	00000f93          	li	t6,0
8000007c:	0001e2b7          	lui	t0,0x1e
80000080:	3002a073          	csrs	mstatus,t0
80000084:	00100293          	li	t0,1
80000088:	01f29293          	slli	t0,t0,0x1f
8000008c:	0002ca63          	bltz	t0,800000a0 <_start+0xa0>
80000090:	00100513          	li	a0,1
80000094:	00001297          	auipc	t0,0x1
80000098:	f6a2a623          	sw	a0,-148(t0) # 80001000 <tohost>
8000009c:	ff5ff06f          	j	80000090 <_start+0x90>
800000a0:	00000297          	auipc	t0,0x0
800000a4:	04428293          	addi	t0,t0,68 # 800000e4 <trap_entry>
800000a8:	30529073          	csrw	mtvec,t0
800000ac:	00006197          	auipc	gp,0x6
800000b0:	f0c18193          	addi	gp,gp,-244 # 80005fb8 <__global_pointer$>
800000b4:	00006217          	auipc	tp,0x6
800000b8:	f4b20213          	addi	tp,tp,-181 # 80005fff <_end+0x3f>
800000bc:	fc027213          	andi	tp,tp,-64
800000c0:	f1402573          	csrr	a0,mhartid
800000c4:	00100593          	li	a1,1
800000c8:	00b57063          	bgeu	a0,a1,800000c8 <_start+0xc8>
800000cc:	01151613          	slli	a2,a0,0x11
800000d0:	00c20233          	add	tp,tp,a2
800000d4:	00150113          	addi	sp,a0,1
800000d8:	01111113          	slli	sp,sp,0x11
800000dc:	00410133          	add	sp,sp,tp
800000e0:	2810306f          	j	80003b60 <_init>

800000e4 <trap_entry>:
800000e4:	ef010113          	addi	sp,sp,-272
800000e8:	00112223          	sw	ra,4(sp)
800000ec:	00212423          	sw	sp,8(sp)
800000f0:	00312623          	sw	gp,12(sp)
800000f4:	00412823          	sw	tp,16(sp)
800000f8:	00512a23          	sw	t0,20(sp)
800000fc:	00612c23          	sw	t1,24(sp)
80000100:	00712e23          	sw	t2,28(sp)
80000104:	02812023          	sw	s0,32(sp)
80000108:	02912223          	sw	s1,36(sp)
8000010c:	02a12423          	sw	a0,40(sp)
80000110:	02b12623          	sw	a1,44(sp)
80000114:	02c12823          	sw	a2,48(sp)
80000118:	02d12a23          	sw	a3,52(sp)
8000011c:	02e12c23          	sw	a4,56(sp)
80000120:	02f12e23          	sw	a5,60(sp)
80000124:	05012023          	sw	a6,64(sp)
80000128:	05112223          	sw	a7,68(sp)
8000012c:	05212423          	sw	s2,72(sp)
80000130:	05312623          	sw	s3,76(sp)
80000134:	05412823          	sw	s4,80(sp)
80000138:	05512a23          	sw	s5,84(sp)
8000013c:	05612c23          	sw	s6,88(sp)
80000140:	05712e23          	sw	s7,92(sp)
80000144:	07812023          	sw	s8,96(sp)
80000148:	07912223          	sw	s9,100(sp)
8000014c:	07a12423          	sw	s10,104(sp)
80000150:	07b12623          	sw	s11,108(sp)
80000154:	07c12823          	sw	t3,112(sp)
80000158:	07d12a23          	sw	t4,116(sp)
8000015c:	07e12c23          	sw	t5,120(sp)
80000160:	07f12e23          	sw	t6,124(sp)
80000164:	34202573          	csrr	a0,mcause
80000168:	341025f3          	csrr	a1,mepc
8000016c:	00010613          	mv	a2,sp
80000170:	6ec030ef          	jal	8000385c <handle_trap>
80000174:	34151073          	csrw	mepc,a0
80000178:	000022b7          	lui	t0,0x2
8000017c:	80028293          	addi	t0,t0,-2048 # 1800 <_tbss_end+0x17bc>
80000180:	3002a073          	csrs	mstatus,t0
80000184:	00412083          	lw	ra,4(sp)
80000188:	00812103          	lw	sp,8(sp)
8000018c:	00c12183          	lw	gp,12(sp)
80000190:	01012203          	lw	tp,16(sp)
80000194:	01412283          	lw	t0,20(sp)
80000198:	01812303          	lw	t1,24(sp)
8000019c:	01c12383          	lw	t2,28(sp)
800001a0:	02012403          	lw	s0,32(sp)
800001a4:	02412483          	lw	s1,36(sp)
800001a8:	02812503          	lw	a0,40(sp)
800001ac:	02c12583          	lw	a1,44(sp)
800001b0:	03012603          	lw	a2,48(sp)
800001b4:	03412683          	lw	a3,52(sp)
800001b8:	03812703          	lw	a4,56(sp)
800001bc:	03c12783          	lw	a5,60(sp)
800001c0:	04012803          	lw	a6,64(sp)
800001c4:	04412883          	lw	a7,68(sp)
800001c8:	04812903          	lw	s2,72(sp)
800001cc:	04c12983          	lw	s3,76(sp)
800001d0:	05012a03          	lw	s4,80(sp)
800001d4:	05412a83          	lw	s5,84(sp)
800001d8:	05812b03          	lw	s6,88(sp)
800001dc:	05c12b83          	lw	s7,92(sp)
800001e0:	06012c03          	lw	s8,96(sp)
800001e4:	06412c83          	lw	s9,100(sp)
800001e8:	06812d03          	lw	s10,104(sp)
800001ec:	06c12d83          	lw	s11,108(sp)
800001f0:	07012e03          	lw	t3,112(sp)
800001f4:	07412e83          	lw	t4,116(sp)
800001f8:	07812f03          	lw	t5,120(sp)
800001fc:	07c12f83          	lw	t6,124(sp)
80000200:	11010113          	addi	sp,sp,272
80000204:	30200073          	mret

Disassembly of section .text:

80001048 <cmp_idx>:
80001048:	00060a63          	beqz	a2,8000105c <cmp_idx+0x14>
8000104c:	00251503          	lh	a0,2(a0)
80001050:	00259783          	lh	a5,2(a1)
80001054:	40f50533          	sub	a0,a0,a5
80001058:	00008067          	ret
8000105c:	00051783          	lh	a5,0(a0)
80001060:	01079693          	slli	a3,a5,0x10
80001064:	f007f713          	andi	a4,a5,-256
80001068:	0186d793          	srli	a5,a3,0x18
8000106c:	00f767b3          	or	a5,a4,a5
80001070:	00f51023          	sh	a5,0(a0)
80001074:	00059783          	lh	a5,0(a1)
80001078:	00251503          	lh	a0,2(a0)
8000107c:	01079693          	slli	a3,a5,0x10
80001080:	f007f713          	andi	a4,a5,-256
80001084:	0186d793          	srli	a5,a3,0x18
80001088:	00f767b3          	or	a5,a4,a5
8000108c:	00f59023          	sh	a5,0(a1)
80001090:	00259783          	lh	a5,2(a1)
80001094:	40f50533          	sub	a0,a0,a5
80001098:	00008067          	ret

8000109c <calc_func>:
8000109c:	00051803          	lh	a6,0(a0)
800010a0:	40785793          	srai	a5,a6,0x7
800010a4:	0017f793          	andi	a5,a5,1
800010a8:	00078663          	beqz	a5,800010b4 <calc_func+0x18>
800010ac:	07f87513          	andi	a0,a6,127
800010b0:	00008067          	ret
800010b4:	40385713          	srai	a4,a6,0x3
800010b8:	00f77713          	andi	a4,a4,15
800010bc:	fe010113          	addi	sp,sp,-32
800010c0:	00471793          	slli	a5,a4,0x4
800010c4:	00f70633          	add	a2,a4,a5
800010c8:	00812c23          	sw	s0,24(sp)
800010cc:	00112e23          	sw	ra,28(sp)
800010d0:	00912a23          	sw	s1,20(sp)
800010d4:	00787693          	andi	a3,a6,7
800010d8:	0385d783          	lhu	a5,56(a1)
800010dc:	00058893          	mv	a7,a1
800010e0:	00050413          	mv	s0,a0
800010e4:	00060713          	mv	a4,a2
800010e8:	08068e63          	beqz	a3,80001184 <calc_func+0xe8>
800010ec:	00100613          	li	a2,1
800010f0:	08c69263          	bne	a3,a2,80001174 <calc_func+0xd8>
800010f4:	00078613          	mv	a2,a5
800010f8:	02888513          	addi	a0,a7,40
800010fc:	00070593          	mv	a1,a4
80001100:	01012623          	sw	a6,12(sp)
80001104:	01112423          	sw	a7,8(sp)
80001108:	08c010ef          	jal	80002194 <core_bench_matrix>
8000110c:	00812883          	lw	a7,8(sp)
80001110:	01051493          	slli	s1,a0,0x10
80001114:	00c12803          	lw	a6,12(sp)
80001118:	03c8d783          	lhu	a5,60(a7)
8000111c:	4104d493          	srai	s1,s1,0x10
80001120:	0a079463          	bnez	a5,800011c8 <calc_func+0x12c>
80001124:	0388d783          	lhu	a5,56(a7)
80001128:	02a89e23          	sh	a0,60(a7)
8000112c:	00078593          	mv	a1,a5
80001130:	01112623          	sw	a7,12(sp)
80001134:	01012423          	sw	a6,8(sp)
80001138:	005010ef          	jal	8000293c <crcu16>
8000113c:	00812803          	lw	a6,8(sp)
80001140:	00c12883          	lw	a7,12(sp)
80001144:	00050793          	mv	a5,a0
80001148:	f0087813          	andi	a6,a6,-256
8000114c:	07f4f513          	andi	a0,s1,127
80001150:	01056833          	or	a6,a0,a6
80001154:	02f89c23          	sh	a5,56(a7)
80001158:	08086813          	ori	a6,a6,128
8000115c:	01c12083          	lw	ra,28(sp)
80001160:	01041023          	sh	a6,0(s0)
80001164:	01812403          	lw	s0,24(sp)
80001168:	01412483          	lw	s1,20(sp)
8000116c:	02010113          	addi	sp,sp,32
80001170:	00008067          	ret
80001174:	01081513          	slli	a0,a6,0x10
80001178:	01055513          	srli	a0,a0,0x10
8000117c:	00080493          	mv	s1,a6
80001180:	fadff06f          	j	8000112c <calc_func+0x90>
80001184:	02100693          	li	a3,33
80001188:	00c6e463          	bltu	a3,a2,80001190 <calc_func+0xf4>
8000118c:	02200713          	li	a4,34
80001190:	00289683          	lh	a3,2(a7)
80001194:	00089603          	lh	a2,0(a7)
80001198:	0148a583          	lw	a1,20(a7)
8000119c:	0188a503          	lw	a0,24(a7)
800011a0:	01012623          	sw	a6,12(sp)
800011a4:	01112423          	sw	a7,8(sp)
800011a8:	464010ef          	jal	8000260c <core_bench_state>
800011ac:	00812883          	lw	a7,8(sp)
800011b0:	01051493          	slli	s1,a0,0x10
800011b4:	00c12803          	lw	a6,12(sp)
800011b8:	03e8d783          	lhu	a5,62(a7)
800011bc:	4104d493          	srai	s1,s1,0x10
800011c0:	00079463          	bnez	a5,800011c8 <calc_func+0x12c>
800011c4:	02a89f23          	sh	a0,62(a7)
800011c8:	0388d783          	lhu	a5,56(a7)
800011cc:	f61ff06f          	j	8000112c <calc_func+0x90>

800011d0 <cmp_complex>:
800011d0:	fe010113          	addi	sp,sp,-32
800011d4:	00912a23          	sw	s1,20(sp)
800011d8:	00058493          	mv	s1,a1
800011dc:	00060593          	mv	a1,a2
800011e0:	00112e23          	sw	ra,28(sp)
800011e4:	00812c23          	sw	s0,24(sp)
800011e8:	00c12623          	sw	a2,12(sp)
800011ec:	eb1ff0ef          	jal	8000109c <calc_func>
800011f0:	00c12583          	lw	a1,12(sp)
800011f4:	00050413          	mv	s0,a0
800011f8:	00048513          	mv	a0,s1
800011fc:	ea1ff0ef          	jal	8000109c <calc_func>
80001200:	01c12083          	lw	ra,28(sp)
80001204:	40a40533          	sub	a0,s0,a0
80001208:	01812403          	lw	s0,24(sp)
8000120c:	01412483          	lw	s1,20(sp)
80001210:	02010113          	addi	sp,sp,32
80001214:	00008067          	ret

80001218 <copy_info>:
80001218:	00059703          	lh	a4,0(a1)
8000121c:	00259783          	lh	a5,2(a1)
80001220:	00e51023          	sh	a4,0(a0)
80001224:	00f51123          	sh	a5,2(a0)
80001228:	00008067          	ret

8000122c <core_list_insert_new>:
8000122c:	00062803          	lw	a6,0(a2)
80001230:	00880893          	addi	a7,a6,8
80001234:	04e8f663          	bgeu	a7,a4,80001280 <core_list_insert_new+0x54>
80001238:	0006a703          	lw	a4,0(a3)
8000123c:	00470313          	addi	t1,a4,4
80001240:	04f37063          	bgeu	t1,a5,80001280 <core_list_insert_new+0x54>
80001244:	01162023          	sw	a7,0(a2)
80001248:	00052783          	lw	a5,0(a0)
8000124c:	00059883          	lh	a7,0(a1)
80001250:	00259603          	lh	a2,2(a1)
80001254:	00f82023          	sw	a5,0(a6)
80001258:	01052023          	sw	a6,0(a0)
8000125c:	00e82223          	sw	a4,4(a6)
80001260:	0006a783          	lw	a5,0(a3)
80001264:	00080513          	mv	a0,a6
80001268:	00478793          	addi	a5,a5,4
8000126c:	00f6a023          	sw	a5,0(a3)
80001270:	00482783          	lw	a5,4(a6)
80001274:	01179023          	sh	a7,0(a5)
80001278:	00c79123          	sh	a2,2(a5)
8000127c:	00008067          	ret
80001280:	00000813          	li	a6,0
80001284:	00080513          	mv	a0,a6
80001288:	00008067          	ret

8000128c <core_list_remove>:
8000128c:	00050793          	mv	a5,a0
80001290:	00052503          	lw	a0,0(a0)
80001294:	0047a683          	lw	a3,4(a5)
80001298:	00452603          	lw	a2,4(a0)
8000129c:	00052703          	lw	a4,0(a0)
800012a0:	00c7a223          	sw	a2,4(a5)
800012a4:	00d52223          	sw	a3,4(a0)
800012a8:	00e7a023          	sw	a4,0(a5)
800012ac:	00052023          	sw	zero,0(a0)
800012b0:	00008067          	ret

800012b4 <core_list_undo_remove>:
800012b4:	0045a683          	lw	a3,4(a1)
800012b8:	00452703          	lw	a4,4(a0)
800012bc:	0005a783          	lw	a5,0(a1)
800012c0:	00d52223          	sw	a3,4(a0)
800012c4:	00e5a223          	sw	a4,4(a1)
800012c8:	00f52023          	sw	a5,0(a0)
800012cc:	00a5a023          	sw	a0,0(a1)
800012d0:	00008067          	ret

800012d4 <core_list_find>:
800012d4:	00259703          	lh	a4,2(a1)
800012d8:	02074263          	bltz	a4,800012fc <core_list_find+0x28>
800012dc:	00051863          	bnez	a0,800012ec <core_list_find+0x18>
800012e0:	00008067          	ret
800012e4:	00052503          	lw	a0,0(a0)
800012e8:	02050a63          	beqz	a0,8000131c <core_list_find+0x48>
800012ec:	00452783          	lw	a5,4(a0)
800012f0:	00279783          	lh	a5,2(a5)
800012f4:	fee798e3          	bne	a5,a4,800012e4 <core_list_find+0x10>
800012f8:	00008067          	ret
800012fc:	02050063          	beqz	a0,8000131c <core_list_find+0x48>
80001300:	00059703          	lh	a4,0(a1)
80001304:	00c0006f          	j	80001310 <core_list_find+0x3c>
80001308:	00052503          	lw	a0,0(a0)
8000130c:	00050863          	beqz	a0,8000131c <core_list_find+0x48>
80001310:	00452783          	lw	a5,4(a0)
80001314:	0007c783          	lbu	a5,0(a5)
80001318:	fee798e3          	bne	a5,a4,80001308 <core_list_find+0x34>
8000131c:	00008067          	ret

80001320 <core_list_reverse>:
80001320:	02050063          	beqz	a0,80001340 <core_list_reverse+0x20>
80001324:	00000713          	li	a4,0
80001328:	0080006f          	j	80001330 <core_list_reverse+0x10>
8000132c:	00078513          	mv	a0,a5
80001330:	00052783          	lw	a5,0(a0)
80001334:	00e52023          	sw	a4,0(a0)
80001338:	00050713          	mv	a4,a0
8000133c:	fe0798e3          	bnez	a5,8000132c <core_list_reverse+0xc>
80001340:	00008067          	ret

80001344 <core_list_mergesort>:
80001344:	fd010113          	addi	sp,sp,-48
80001348:	03212023          	sw	s2,32(sp)
8000134c:	01512a23          	sw	s5,20(sp)
80001350:	01612823          	sw	s6,16(sp)
80001354:	01712623          	sw	s7,12(sp)
80001358:	01a12023          	sw	s10,0(sp)
8000135c:	00100a93          	li	s5,1
80001360:	02112623          	sw	ra,44(sp)
80001364:	02812423          	sw	s0,40(sp)
80001368:	02912223          	sw	s1,36(sp)
8000136c:	01312e23          	sw	s3,28(sp)
80001370:	01412c23          	sw	s4,24(sp)
80001374:	01812423          	sw	s8,8(sp)
80001378:	01912223          	sw	s9,4(sp)
8000137c:	00050913          	mv	s2,a0
80001380:	00058b93          	mv	s7,a1
80001384:	00060b13          	mv	s6,a2
80001388:	000a8d13          	mv	s10,s5
8000138c:	0e090863          	beqz	s2,8000147c <core_list_mergesort+0x138>
80001390:	00000c93          	li	s9,0
80001394:	00000493          	li	s1,0
80001398:	00000c13          	li	s8,0
8000139c:	001c8c93          	addi	s9,s9,1
800013a0:	00090793          	mv	a5,s2
800013a4:	00000413          	li	s0,0
800013a8:	01545863          	bge	s0,s5,800013b8 <core_list_mergesort+0x74>
800013ac:	0007a783          	lw	a5,0(a5)
800013b0:	00140413          	addi	s0,s0,1
800013b4:	fe079ae3          	bnez	a5,800013a8 <core_list_mergesort+0x64>
800013b8:	00090993          	mv	s3,s2
800013bc:	000a8a13          	mv	s4,s5
800013c0:	00078913          	mv	s2,a5
800013c4:	02805463          	blez	s0,800013ec <core_list_mergesort+0xa8>
800013c8:	000a0463          	beqz	s4,800013d0 <core_list_mergesort+0x8c>
800013cc:	02091863          	bnez	s2,800013fc <core_list_mergesort+0xb8>
800013d0:	00048793          	mv	a5,s1
800013d4:	fff40413          	addi	s0,s0,-1
800013d8:	00098493          	mv	s1,s3
800013dc:	0009a983          	lw	s3,0(s3)
800013e0:	04078263          	beqz	a5,80001424 <core_list_mergesort+0xe0>
800013e4:	0097a023          	sw	s1,0(a5)
800013e8:	fe8040e3          	bgtz	s0,800013c8 <core_list_mergesort+0x84>
800013ec:	012037b3          	snez	a5,s2
800013f0:	07405a63          	blez	s4,80001464 <core_list_mergesort+0x120>
800013f4:	06078a63          	beqz	a5,80001468 <core_list_mergesort+0x124>
800013f8:	04040463          	beqz	s0,80001440 <core_list_mergesort+0xfc>
800013fc:	00492583          	lw	a1,4(s2)
80001400:	0049a503          	lw	a0,4(s3)
80001404:	000b0613          	mv	a2,s6
80001408:	000b80e7          	jalr	s7
8000140c:	06a05c63          	blez	a0,80001484 <core_list_mergesort+0x140>
80001410:	00048793          	mv	a5,s1
80001414:	fffa0a13          	addi	s4,s4,-1
80001418:	00090493          	mv	s1,s2
8000141c:	00092903          	lw	s2,0(s2)
80001420:	fc0792e3          	bnez	a5,800013e4 <core_list_mergesort+0xa0>
80001424:	00048c13          	mv	s8,s1
80001428:	f9dff06f          	j	800013c4 <core_list_mergesort+0x80>
8000142c:	00e4a023          	sw	a4,0(s1)
80001430:	012037b3          	snez	a5,s2
80001434:	00070493          	mv	s1,a4
80001438:	020a0463          	beqz	s4,80001460 <core_list_mergesort+0x11c>
8000143c:	02078263          	beqz	a5,80001460 <core_list_mergesort+0x11c>
80001440:	00090713          	mv	a4,s2
80001444:	fffa0a13          	addi	s4,s4,-1
80001448:	00092903          	lw	s2,0(s2)
8000144c:	fe0490e3          	bnez	s1,8000142c <core_list_mergesort+0xe8>
80001450:	00070c13          	mv	s8,a4
80001454:	012037b3          	snez	a5,s2
80001458:	00070493          	mv	s1,a4
8000145c:	fe0a10e3          	bnez	s4,8000143c <core_list_mergesort+0xf8>
80001460:	00070493          	mv	s1,a4
80001464:	f2079ce3          	bnez	a5,8000139c <core_list_mergesort+0x58>
80001468:	0004a023          	sw	zero,0(s1)
8000146c:	05ac8663          	beq	s9,s10,800014b8 <core_list_mergesort+0x174>
80001470:	000c0913          	mv	s2,s8
80001474:	001a9a93          	slli	s5,s5,0x1
80001478:	f0091ce3          	bnez	s2,80001390 <core_list_mergesort+0x4c>
8000147c:	00002023          	sw	zero,0(zero) # 0 <_tdata_begin>
80001480:	00100073          	ebreak
80001484:	0009a703          	lw	a4,0(s3)
80001488:	fff40413          	addi	s0,s0,-1
8000148c:	00048c63          	beqz	s1,800014a4 <core_list_mergesort+0x160>
80001490:	00048793          	mv	a5,s1
80001494:	00098493          	mv	s1,s3
80001498:	0097a023          	sw	s1,0(a5)
8000149c:	00070993          	mv	s3,a4
800014a0:	f49ff06f          	j	800013e8 <core_list_mergesort+0xa4>
800014a4:	00098c13          	mv	s8,s3
800014a8:	00098493          	mv	s1,s3
800014ac:	00070993          	mv	s3,a4
800014b0:	f48046e3          	bgtz	s0,800013fc <core_list_mergesort+0xb8>
800014b4:	f39ff06f          	j	800013ec <core_list_mergesort+0xa8>
800014b8:	02c12083          	lw	ra,44(sp)
800014bc:	02812403          	lw	s0,40(sp)
800014c0:	02412483          	lw	s1,36(sp)
800014c4:	02012903          	lw	s2,32(sp)
800014c8:	01c12983          	lw	s3,28(sp)
800014cc:	01812a03          	lw	s4,24(sp)
800014d0:	01412a83          	lw	s5,20(sp)
800014d4:	01012b03          	lw	s6,16(sp)
800014d8:	00c12b83          	lw	s7,12(sp)
800014dc:	00412c83          	lw	s9,4(sp)
800014e0:	00012d03          	lw	s10,0(sp)
800014e4:	000c0513          	mv	a0,s8
800014e8:	00812c03          	lw	s8,8(sp)
800014ec:	03010113          	addi	sp,sp,48
800014f0:	00008067          	ret

800014f4 <core_bench_list>:
800014f4:	00451603          	lh	a2,4(a0)
800014f8:	fd010113          	addi	sp,sp,-48
800014fc:	02812423          	sw	s0,40(sp)
80001500:	02112623          	sw	ra,44(sp)
80001504:	02912223          	sw	s1,36(sp)
80001508:	03212023          	sw	s2,32(sp)
8000150c:	01312e23          	sw	s3,28(sp)
80001510:	02452403          	lw	s0,36(a0)
80001514:	00000313          	li	t1,0
80001518:	2ac05063          	blez	a2,800017b8 <core_bench_list+0x2c4>
8000151c:	2a05c463          	bltz	a1,800017c4 <core_bench_list+0x2d0>
80001520:	2c040463          	beqz	s0,800017e8 <core_bench_list+0x2f4>
80001524:	00058693          	mv	a3,a1
80001528:	00000e13          	li	t3,0
8000152c:	00000f13          	li	t5,0
80001530:	00000e93          	li	t4,0
80001534:	00000893          	li	a7,0
80001538:	00040793          	mv	a5,s0
8000153c:	00c0006f          	j	80001548 <core_bench_list+0x54>
80001540:	0007a783          	lw	a5,0(a5)
80001544:	0e078463          	beqz	a5,8000162c <core_bench_list+0x138>
80001548:	0047a703          	lw	a4,4(a5)
8000154c:	00271803          	lh	a6,2(a4)
80001550:	fed818e3          	bne	a6,a3,80001540 <core_bench_list+0x4c>
80001554:	00000693          	li	a3,0
80001558:	0080006f          	j	80001560 <core_bench_list+0x6c>
8000155c:	00070413          	mv	s0,a4
80001560:	00042703          	lw	a4,0(s0)
80001564:	00d42023          	sw	a3,0(s0)
80001568:	00040693          	mv	a3,s0
8000156c:	fe0718e3          	bnez	a4,8000155c <core_bench_list+0x68>
80001570:	0c078263          	beqz	a5,80001634 <core_bench_list+0x140>
80001574:	0047a703          	lw	a4,4(a5)
80001578:	001e8e93          	addi	t4,t4,1
8000157c:	00071703          	lh	a4,0(a4)
80001580:	00177693          	andi	a3,a4,1
80001584:	00068863          	beqz	a3,80001594 <core_bench_list+0xa0>
80001588:	40975713          	srai	a4,a4,0x9
8000158c:	00177713          	andi	a4,a4,1
80001590:	00e888b3          	add	a7,a7,a4
80001594:	0007a703          	lw	a4,0(a5)
80001598:	00070c63          	beqz	a4,800015b0 <core_bench_list+0xbc>
8000159c:	00072683          	lw	a3,0(a4)
800015a0:	00d7a023          	sw	a3,0(a5)
800015a4:	00042783          	lw	a5,0(s0)
800015a8:	00f72023          	sw	a5,0(a4)
800015ac:	00e42023          	sw	a4,0(s0)
800015b0:	04084063          	bltz	a6,800015f0 <core_bench_list+0xfc>
800015b4:	001e0793          	addi	a5,t3,1
800015b8:	01079e13          	slli	t3,a5,0x10
800015bc:	00180693          	addi	a3,a6,1
800015c0:	01069693          	slli	a3,a3,0x10
800015c4:	01079793          	slli	a5,a5,0x10
800015c8:	410e5e13          	srai	t3,t3,0x10
800015cc:	4106d693          	srai	a3,a3,0x10
800015d0:	0107d793          	srli	a5,a5,0x10
800015d4:	09c60463          	beq	a2,t3,8000165c <core_bench_list+0x168>
800015d8:	0ff7f313          	zext.b	t1,a5
800015dc:	f406dee3          	bgez	a3,80001538 <core_bench_list+0x44>
800015e0:	00030693          	mv	a3,t1
800015e4:	00040793          	mv	a5,s0
800015e8:	ffff8837          	lui	a6,0xffff8
800015ec:	0300006f          	j	8000161c <core_bench_list+0x128>
800015f0:	001e0693          	addi	a3,t3,1
800015f4:	01069e13          	slli	t3,a3,0x10
800015f8:	410e5e13          	srai	t3,t3,0x10
800015fc:	01069693          	slli	a3,a3,0x10
80001600:	0106d693          	srli	a3,a3,0x10
80001604:	05c60a63          	beq	a2,t3,80001658 <core_bench_list+0x164>
80001608:	0ff6f693          	zext.b	a3,a3
8000160c:	00040793          	mv	a5,s0
80001610:	00c0006f          	j	8000161c <core_bench_list+0x128>
80001614:	0007a783          	lw	a5,0(a5)
80001618:	02078c63          	beqz	a5,80001650 <core_bench_list+0x15c>
8000161c:	0047a703          	lw	a4,4(a5)
80001620:	00074303          	lbu	t1,0(a4)
80001624:	fed318e3          	bne	t1,a3,80001614 <core_bench_list+0x120>
80001628:	f2dff06f          	j	80001554 <core_bench_list+0x60>
8000162c:	00068813          	mv	a6,a3
80001630:	f25ff06f          	j	80001554 <core_bench_list+0x60>
80001634:	00042783          	lw	a5,0(s0)
80001638:	001f0f13          	addi	t5,t5,1
8000163c:	0047a783          	lw	a5,4(a5)
80001640:	00178783          	lb	a5,1(a5)
80001644:	0017f793          	andi	a5,a5,1
80001648:	00f888b3          	add	a7,a7,a5
8000164c:	f65ff06f          	j	800015b0 <core_bench_list+0xbc>
80001650:	00068313          	mv	t1,a3
80001654:	f01ff06f          	j	80001554 <core_bench_list+0x60>
80001658:	00080693          	mv	a3,a6
8000165c:	002e9793          	slli	a5,t4,0x2
80001660:	41e787b3          	sub	a5,a5,t5
80001664:	00f888b3          	add	a7,a7,a5
80001668:	01089493          	slli	s1,a7,0x10
8000166c:	0104d493          	srli	s1,s1,0x10
80001670:	02b05663          	blez	a1,8000169c <core_bench_list+0x1a8>
80001674:	800015b7          	lui	a1,0x80001
80001678:	00050613          	mv	a2,a0
8000167c:	1d058593          	addi	a1,a1,464 # 800011d0 <cmp_complex>
80001680:	00040513          	mv	a0,s0
80001684:	00612623          	sw	t1,12(sp)
80001688:	00d12423          	sw	a3,8(sp)
8000168c:	cb9ff0ef          	jal	80001344 <core_list_mergesort>
80001690:	00c12303          	lw	t1,12(sp)
80001694:	00812683          	lw	a3,8(sp)
80001698:	00050413          	mv	s0,a0
8000169c:	00042783          	lw	a5,0(s0)
800016a0:	00040913          	mv	s2,s0
800016a4:	0007a983          	lw	s3,0(a5)
800016a8:	0047a703          	lw	a4,4(a5)
800016ac:	0049a583          	lw	a1,4(s3)
800016b0:	0009a603          	lw	a2,0(s3)
800016b4:	00b7a223          	sw	a1,4(a5)
800016b8:	00e9a223          	sw	a4,4(s3)
800016bc:	00c7a023          	sw	a2,0(a5)
800016c0:	0009a023          	sw	zero,0(s3)
800016c4:	0006d863          	bgez	a3,800016d4 <core_bench_list+0x1e0>
800016c8:	0b80006f          	j	80001780 <core_bench_list+0x28c>
800016cc:	00092903          	lw	s2,0(s2)
800016d0:	0c090063          	beqz	s2,80001790 <core_bench_list+0x29c>
800016d4:	00492783          	lw	a5,4(s2)
800016d8:	00279783          	lh	a5,2(a5)
800016dc:	fed798e3          	bne	a5,a3,800016cc <core_bench_list+0x1d8>
800016e0:	00442783          	lw	a5,4(s0)
800016e4:	00048593          	mv	a1,s1
800016e8:	00079503          	lh	a0,0(a5)
800016ec:	099010ef          	jal	80002f84 <crc16>
800016f0:	00092903          	lw	s2,0(s2)
800016f4:	00050493          	mv	s1,a0
800016f8:	fe0914e3          	bnez	s2,800016e0 <core_bench_list+0x1ec>
800016fc:	00042903          	lw	s2,0(s0)
80001700:	0049a703          	lw	a4,4(s3)
80001704:	00492683          	lw	a3,4(s2)
80001708:	00092783          	lw	a5,0(s2)
8000170c:	800015b7          	lui	a1,0x80001
80001710:	00d9a223          	sw	a3,4(s3)
80001714:	00e92223          	sw	a4,4(s2)
80001718:	00f9a023          	sw	a5,0(s3)
8000171c:	00040513          	mv	a0,s0
80001720:	01392023          	sw	s3,0(s2)
80001724:	04858593          	addi	a1,a1,72 # 80001048 <cmp_idx>
80001728:	00000613          	li	a2,0
8000172c:	c19ff0ef          	jal	80001344 <core_list_mergesort>
80001730:	00052403          	lw	s0,0(a0)
80001734:	00050913          	mv	s2,a0
80001738:	02040063          	beqz	s0,80001758 <core_bench_list+0x264>
8000173c:	00492783          	lw	a5,4(s2)
80001740:	00048593          	mv	a1,s1
80001744:	00079503          	lh	a0,0(a5)
80001748:	03d010ef          	jal	80002f84 <crc16>
8000174c:	00042403          	lw	s0,0(s0)
80001750:	00050493          	mv	s1,a0
80001754:	fe0414e3          	bnez	s0,8000173c <core_bench_list+0x248>
80001758:	02c12083          	lw	ra,44(sp)
8000175c:	02812403          	lw	s0,40(sp)
80001760:	02012903          	lw	s2,32(sp)
80001764:	01c12983          	lw	s3,28(sp)
80001768:	00048513          	mv	a0,s1
8000176c:	02412483          	lw	s1,36(sp)
80001770:	03010113          	addi	sp,sp,48
80001774:	00008067          	ret
80001778:	00092903          	lw	s2,0(s2)
8000177c:	00090a63          	beqz	s2,80001790 <core_bench_list+0x29c>
80001780:	00492783          	lw	a5,4(s2)
80001784:	0007c783          	lbu	a5,0(a5)
80001788:	fef318e3          	bne	t1,a5,80001778 <core_bench_list+0x284>
8000178c:	f55ff06f          	j	800016e0 <core_bench_list+0x1ec>
80001790:	00042903          	lw	s2,0(s0)
80001794:	f60908e3          	beqz	s2,80001704 <core_bench_list+0x210>
80001798:	00442783          	lw	a5,4(s0)
8000179c:	00048593          	mv	a1,s1
800017a0:	00079503          	lh	a0,0(a5)
800017a4:	7e0010ef          	jal	80002f84 <crc16>
800017a8:	00092903          	lw	s2,0(s2)
800017ac:	00050493          	mv	s1,a0
800017b0:	f20918e3          	bnez	s2,800016e0 <core_bench_list+0x1ec>
800017b4:	f49ff06f          	j	800016fc <core_bench_list+0x208>
800017b8:	00058693          	mv	a3,a1
800017bc:	00000493          	li	s1,0
800017c0:	eb1ff06f          	j	80001670 <core_bench_list+0x17c>
800017c4:	02040263          	beqz	s0,800017e8 <core_bench_list+0x2f4>
800017c8:	00058813          	mv	a6,a1
800017cc:	00040793          	mv	a5,s0
800017d0:	00000893          	li	a7,0
800017d4:	00000693          	li	a3,0
800017d8:	00000f13          	li	t5,0
800017dc:	00000e13          	li	t3,0
800017e0:	00000e93          	li	t4,0
800017e4:	e39ff06f          	j	8000161c <core_bench_list+0x128>
800017e8:	00002783          	lw	a5,0(zero) # 0 <_tdata_begin>
800017ec:	00100073          	ebreak

800017f0 <core_list_init>:
800017f0:	ccccd7b7          	lui	a5,0xccccd
800017f4:	ccd78793          	addi	a5,a5,-819 # cccccccd <_end+0x4ccc6d0d>
800017f8:	02f538b3          	mulhu	a7,a0,a5
800017fc:	00058513          	mv	a0,a1
80001800:	0005a023          	sw	zero,0(a1)
80001804:	ffff87b7          	lui	a5,0xffff8
80001808:	08078793          	addi	a5,a5,128 # ffff8080 <_end+0x7fff20c0>
8000180c:	01058693          	addi	a3,a1,16
80001810:	ffff8737          	lui	a4,0xffff8
80001814:	00858593          	addi	a1,a1,8
80001818:	0048d893          	srli	a7,a7,0x4
8000181c:	ffe88893          	addi	a7,a7,-2
80001820:	00389e13          	slli	t3,a7,0x3
80001824:	01c50e33          	add	t3,a0,t3
80001828:	01c52223          	sw	t3,4(a0)
8000182c:	00fe1023          	sh	a5,0(t3)
80001830:	00289f13          	slli	t5,a7,0x2
80001834:	000e1123          	sh	zero,2(t3)
80001838:	01ee0f33          	add	t5,t3,t5
8000183c:	004e0793          	addi	a5,t3,4
80001840:	11c6f263          	bgeu	a3,t3,80001944 <core_list_init+0x154>
80001844:	008e0813          	addi	a6,t3,8
80001848:	0fe87e63          	bgeu	a6,t5,80001944 <core_list_init+0x154>
8000184c:	00f52623          	sw	a5,12(a0)
80001850:	00052423          	sw	zero,8(a0)
80001854:	00b52023          	sw	a1,0(a0)
80001858:	fff74713          	not	a4,a4
8000185c:	fff00793          	li	a5,-1
80001860:	00ee1323          	sh	a4,6(t3)
80001864:	00fe1223          	sh	a5,4(t3)
80001868:	ffff8fb7          	lui	t6,0xffff8
8000186c:	ffffcf93          	not	t6,t6
80001870:	00000713          	li	a4,0
80001874:	04088c63          	beqz	a7,800018cc <core_list_init+0xdc>
80001878:	00c747b3          	xor	a5,a4,a2
8000187c:	00379793          	slli	a5,a5,0x3
80001880:	00777593          	andi	a1,a4,7
80001884:	0787f793          	andi	a5,a5,120
80001888:	00b7e7b3          	or	a5,a5,a1
8000188c:	00879e93          	slli	t4,a5,0x8
80001890:	00868313          	addi	t1,a3,8
80001894:	00170713          	addi	a4,a4,1 # ffff8001 <_end+0x7fff2041>
80001898:	00480593          	addi	a1,a6,4 # ffff8004 <_end+0x7fff2044>
8000189c:	01d787b3          	add	a5,a5,t4
800018a0:	03c37463          	bgeu	t1,t3,800018c8 <core_list_init+0xd8>
800018a4:	03e5f263          	bgeu	a1,t5,800018c8 <core_list_init+0xd8>
800018a8:	00052e83          	lw	t4,0(a0)
800018ac:	01d6a023          	sw	t4,0(a3)
800018b0:	00d52023          	sw	a3,0(a0)
800018b4:	0106a223          	sw	a6,4(a3)
800018b8:	00f81023          	sh	a5,0(a6)
800018bc:	01f81123          	sh	t6,2(a6)
800018c0:	00030693          	mv	a3,t1
800018c4:	00058813          	mv	a6,a1
800018c8:	fae898e3          	bne	a7,a4,80001878 <core_list_init+0x88>
800018cc:	00052583          	lw	a1,0(a0)
800018d0:	0005a683          	lw	a3,0(a1)
800018d4:	06068063          	beqz	a3,80001934 <core_list_init+0x144>
800018d8:	ccccd7b7          	lui	a5,0xccccd
800018dc:	ccd78793          	addi	a5,a5,-819 # cccccccd <_end+0x4ccc6d0d>
800018e0:	02f8b8b3          	mulhu	a7,a7,a5
800018e4:	00004e37          	lui	t3,0x4
800018e8:	fffe0e13          	addi	t3,t3,-1 # 3fff <_tbss_end+0x3fbb>
800018ec:	20000813          	li	a6,512
800018f0:	00100713          	li	a4,1
800018f4:	0028d893          	srli	a7,a7,0x2
800018f8:	0080006f          	j	80001900 <core_list_init+0x110>
800018fc:	00030693          	mv	a3,t1
80001900:	70087793          	andi	a5,a6,1792
80001904:	00e64333          	xor	t1,a2,a4
80001908:	0067e7b3          	or	a5,a5,t1
8000190c:	0045a583          	lw	a1,4(a1)
80001910:	01c7f7b3          	and	a5,a5,t3
80001914:	01177463          	bgeu	a4,a7,8000191c <core_list_init+0x12c>
80001918:	00070793          	mv	a5,a4
8000191c:	0006a303          	lw	t1,0(a3)
80001920:	00f59123          	sh	a5,2(a1)
80001924:	00170713          	addi	a4,a4,1
80001928:	10080813          	addi	a6,a6,256
8000192c:	00068593          	mv	a1,a3
80001930:	fc0316e3          	bnez	t1,800018fc <core_list_init+0x10c>
80001934:	800015b7          	lui	a1,0x80001
80001938:	04858593          	addi	a1,a1,72 # 80001048 <cmp_idx>
8000193c:	00000613          	li	a2,0
80001940:	a05ff06f          	j	80001344 <core_list_mergesort>
80001944:	00078813          	mv	a6,a5
80001948:	00058693          	mv	a3,a1
8000194c:	f1dff06f          	j	80001868 <core_list_init+0x78>

80001950 <iterate>:
80001950:	ff010113          	addi	sp,sp,-16
80001954:	01212023          	sw	s2,0(sp)
80001958:	01c52903          	lw	s2,28(a0)
8000195c:	00112623          	sw	ra,12(sp)
80001960:	02052c23          	sw	zero,56(a0)
80001964:	02052e23          	sw	zero,60(a0)
80001968:	04090e63          	beqz	s2,800019c4 <iterate+0x74>
8000196c:	00812423          	sw	s0,8(sp)
80001970:	00912223          	sw	s1,4(sp)
80001974:	00050413          	mv	s0,a0
80001978:	00000493          	li	s1,0
8000197c:	00100593          	li	a1,1
80001980:	00040513          	mv	a0,s0
80001984:	b71ff0ef          	jal	800014f4 <core_bench_list>
80001988:	03845583          	lhu	a1,56(s0)
8000198c:	7b1000ef          	jal	8000293c <crcu16>
80001990:	02a41c23          	sh	a0,56(s0)
80001994:	fff00593          	li	a1,-1
80001998:	00040513          	mv	a0,s0
8000199c:	b59ff0ef          	jal	800014f4 <core_bench_list>
800019a0:	03845583          	lhu	a1,56(s0)
800019a4:	799000ef          	jal	8000293c <crcu16>
800019a8:	02a41c23          	sh	a0,56(s0)
800019ac:	00049463          	bnez	s1,800019b4 <iterate+0x64>
800019b0:	02a41d23          	sh	a0,58(s0)
800019b4:	00148493          	addi	s1,s1,1
800019b8:	fc9912e3          	bne	s2,s1,8000197c <iterate+0x2c>
800019bc:	00812403          	lw	s0,8(sp)
800019c0:	00412483          	lw	s1,4(sp)
800019c4:	00c12083          	lw	ra,12(sp)
800019c8:	00012903          	lw	s2,0(sp)
800019cc:	00000513          	li	a0,0
800019d0:	01010113          	addi	sp,sp,16
800019d4:	00008067          	ret

800019d8 <core_init_matrix>:
800019d8:	ff010113          	addi	sp,sp,-16
800019dc:	00812623          	sw	s0,12(sp)
800019e0:	00912423          	sw	s1,8(sp)
800019e4:	00050813          	mv	a6,a0
800019e8:	00061463          	bnez	a2,800019f0 <core_init_matrix+0x18>
800019ec:	00100613          	li	a2,1
800019f0:	fff58413          	addi	s0,a1,-1
800019f4:	ffc47413          	andi	s0,s0,-4
800019f8:	00440393          	addi	t2,s0,4
800019fc:	00000793          	li	a5,0
80001a00:	0c080c63          	beqz	a6,80001ad8 <core_init_matrix+0x100>
80001a04:	00078513          	mv	a0,a5
80001a08:	00178793          	addi	a5,a5,1
80001a0c:	02f78733          	mul	a4,a5,a5
80001a10:	00371713          	slli	a4,a4,0x3
80001a14:	ff0768e3          	bltu	a4,a6,80001a04 <core_init_matrix+0x2c>
80001a18:	02a502b3          	mul	t0,a0,a0
80001a1c:	00129293          	slli	t0,t0,0x1
80001a20:	00538433          	add	s0,t2,t0
80001a24:	0c050663          	beqz	a0,80001af0 <core_init_matrix+0x118>
80001a28:	01212223          	sw	s2,4(sp)
80001a2c:	00050493          	mv	s1,a0
80001a30:	00150313          	addi	t1,a0,1
80001a34:	00151913          	slli	s2,a0,0x1
80001a38:	00040f13          	mv	t5,s0
80001a3c:	00000e93          	li	t4,0
80001a40:	00100793          	li	a5,1
80001a44:	40838e33          	sub	t3,t2,s0
80001a48:	00078f93          	mv	t6,a5
80001a4c:	000f0593          	mv	a1,t5
80001a50:	02f60633          	mul	a2,a2,a5
80001a54:	00be08b3          	add	a7,t3,a1
80001a58:	00258593          	addi	a1,a1,2
80001a5c:	41f65713          	srai	a4,a2,0x1f
80001a60:	01075713          	srli	a4,a4,0x10
80001a64:	00e60633          	add	a2,a2,a4
80001a68:	01061613          	slli	a2,a2,0x10
80001a6c:	01065613          	srli	a2,a2,0x10
80001a70:	40e60633          	sub	a2,a2,a4
80001a74:	00c78833          	add	a6,a5,a2
80001a78:	00f80733          	add	a4,a6,a5
80001a7c:	ff059f23          	sh	a6,-2(a1)
80001a80:	0ff77713          	zext.b	a4,a4
80001a84:	00178793          	addi	a5,a5,1
80001a88:	00e89023          	sh	a4,0(a7)
80001a8c:	fc6792e3          	bne	a5,t1,80001a50 <core_init_matrix+0x78>
80001a90:	001e8e93          	addi	t4,t4,1
80001a94:	01f507b3          	add	a5,a0,t6
80001a98:	00a30333          	add	t1,t1,a0
80001a9c:	012f0f33          	add	t5,t5,s2
80001aa0:	faae94e3          	bne	t4,a0,80001a48 <core_init_matrix+0x70>
80001aa4:	00412903          	lw	s2,4(sp)
80001aa8:	005407b3          	add	a5,s0,t0
80001aac:	fff78793          	addi	a5,a5,-1
80001ab0:	0086a423          	sw	s0,8(a3)
80001ab4:	ffc7f793          	andi	a5,a5,-4
80001ab8:	00c12403          	lw	s0,12(sp)
80001abc:	00478793          	addi	a5,a5,4
80001ac0:	0096a023          	sw	s1,0(a3)
80001ac4:	00f6a623          	sw	a5,12(a3)
80001ac8:	0076a223          	sw	t2,4(a3)
80001acc:	00812483          	lw	s1,8(sp)
80001ad0:	01010113          	addi	sp,sp,16
80001ad4:	00008067          	ret
80001ad8:	fff00493          	li	s1,-1
80001adc:	01212223          	sw	s2,4(sp)
80001ae0:	00640413          	addi	s0,s0,6
80001ae4:	00048513          	mv	a0,s1
80001ae8:	00200293          	li	t0,2
80001aec:	f45ff06f          	j	80001a30 <core_init_matrix+0x58>
80001af0:	00000293          	li	t0,0
80001af4:	00000493          	li	s1,0
80001af8:	fb1ff06f          	j	80001aa8 <core_init_matrix+0xd0>

80001afc <matrix_sum>:
80001afc:	00050e93          	mv	t4,a0
80001b00:	06050a63          	beqz	a0,80001b74 <matrix_sum+0x78>
80001b04:	00251e13          	slli	t3,a0,0x2
80001b08:	01c588b3          	add	a7,a1,t3
80001b0c:	00000313          	li	t1,0
80001b10:	00000513          	li	a0,0
80001b14:	00000713          	li	a4,0
80001b18:	00000693          	li	a3,0
80001b1c:	41c887b3          	sub	a5,a7,t3
80001b20:	0180006f          	j	80001b38 <matrix_sum+0x3c>
80001b24:	00b50833          	add	a6,a0,a1
80001b28:	01081513          	slli	a0,a6,0x10
80001b2c:	00478793          	addi	a5,a5,4
80001b30:	41055513          	srai	a0,a0,0x10
80001b34:	02f88863          	beq	a7,a5,80001b64 <matrix_sum+0x68>
80001b38:	00070593          	mv	a1,a4
80001b3c:	0007a703          	lw	a4,0(a5)
80001b40:	00a50813          	addi	a6,a0,10
80001b44:	00e686b3          	add	a3,a3,a4
80001b48:	00e5a5b3          	slt	a1,a1,a4
80001b4c:	fcd65ce3          	bge	a2,a3,80001b24 <matrix_sum+0x28>
80001b50:	01081513          	slli	a0,a6,0x10
80001b54:	00478793          	addi	a5,a5,4
80001b58:	00000693          	li	a3,0
80001b5c:	41055513          	srai	a0,a0,0x10
80001b60:	fcf89ce3          	bne	a7,a5,80001b38 <matrix_sum+0x3c>
80001b64:	00130313          	addi	t1,t1,1
80001b68:	01c888b3          	add	a7,a7,t3
80001b6c:	fa6e98e3          	bne	t4,t1,80001b1c <matrix_sum+0x20>
80001b70:	00008067          	ret
80001b74:	00000513          	li	a0,0
80001b78:	00008067          	ret

80001b7c <matrix_mul_const>:
80001b7c:	04050463          	beqz	a0,80001bc4 <matrix_mul_const+0x48>
80001b80:	00151e13          	slli	t3,a0,0x1
80001b84:	01c60833          	add	a6,a2,t3
80001b88:	00000313          	li	t1,0
80001b8c:	00000893          	li	a7,0
80001b90:	00231613          	slli	a2,t1,0x2
80001b94:	00c58633          	add	a2,a1,a2
80001b98:	41c807b3          	sub	a5,a6,t3
80001b9c:	00079703          	lh	a4,0(a5)
80001ba0:	00278793          	addi	a5,a5,2
80001ba4:	00460613          	addi	a2,a2,4
80001ba8:	02d70733          	mul	a4,a4,a3
80001bac:	fee62e23          	sw	a4,-4(a2)
80001bb0:	fef816e3          	bne	a6,a5,80001b9c <matrix_mul_const+0x20>
80001bb4:	00188893          	addi	a7,a7,1
80001bb8:	00a30333          	add	t1,t1,a0
80001bbc:	01c80833          	add	a6,a6,t3
80001bc0:	fd1518e3          	bne	a0,a7,80001b90 <matrix_mul_const+0x14>
80001bc4:	00008067          	ret

80001bc8 <matrix_add_const>:
80001bc8:	02050a63          	beqz	a0,80001bfc <matrix_add_const+0x34>
80001bcc:	00151813          	slli	a6,a0,0x1
80001bd0:	010586b3          	add	a3,a1,a6
80001bd4:	00000593          	li	a1,0
80001bd8:	410687b3          	sub	a5,a3,a6
80001bdc:	0007d703          	lhu	a4,0(a5)
80001be0:	00278793          	addi	a5,a5,2
80001be4:	00e60733          	add	a4,a2,a4
80001be8:	fee79f23          	sh	a4,-2(a5)
80001bec:	fef698e3          	bne	a3,a5,80001bdc <matrix_add_const+0x14>
80001bf0:	00158593          	addi	a1,a1,1
80001bf4:	010686b3          	add	a3,a3,a6
80001bf8:	feb510e3          	bne	a0,a1,80001bd8 <matrix_add_const+0x10>
80001bfc:	00008067          	ret

80001c00 <matrix_mul_vect>:
80001c00:	04050a63          	beqz	a0,80001c54 <matrix_mul_vect+0x54>
80001c04:	00251f13          	slli	t5,a0,0x2
80001c08:	00151e13          	slli	t3,a0,0x1
80001c0c:	01e58f33          	add	t5,a1,t5
80001c10:	01c68e33          	add	t3,a3,t3
80001c14:	00000e93          	li	t4,0
80001c18:	001e9813          	slli	a6,t4,0x1
80001c1c:	01060833          	add	a6,a2,a6
80001c20:	00068793          	mv	a5,a3
80001c24:	00000893          	li	a7,0
80001c28:	00081703          	lh	a4,0(a6)
80001c2c:	00079303          	lh	t1,0(a5)
80001c30:	00278793          	addi	a5,a5,2
80001c34:	00280813          	addi	a6,a6,2
80001c38:	02670733          	mul	a4,a4,t1
80001c3c:	00e888b3          	add	a7,a7,a4
80001c40:	fefe14e3          	bne	t3,a5,80001c28 <matrix_mul_vect+0x28>
80001c44:	0115a023          	sw	a7,0(a1)
80001c48:	00458593          	addi	a1,a1,4
80001c4c:	00ae8eb3          	add	t4,t4,a0
80001c50:	fcbf14e3          	bne	t5,a1,80001c18 <matrix_mul_vect+0x18>
80001c54:	00008067          	ret

80001c58 <matrix_mul_matrix>:
80001c58:	08050e63          	beqz	a0,80001cf4 <matrix_mul_matrix+0x9c>
80001c5c:	ff010113          	addi	sp,sp,-16
80001c60:	00151313          	slli	t1,a0,0x1
80001c64:	00812623          	sw	s0,12(sp)
80001c68:	00060293          	mv	t0,a2
80001c6c:	00068413          	mv	s0,a3
80001c70:	00660e33          	add	t3,a2,t1
80001c74:	00000393          	li	t2,0
80001c78:	00000693          	li	a3,0
80001c7c:	00239e93          	slli	t4,t2,0x2
80001c80:	01d58eb3          	add	t4,a1,t4
80001c84:	00040f13          	mv	t5,s0
80001c88:	00000f93          	li	t6,0
80001c8c:	000f0613          	mv	a2,t5
80001c90:	00028793          	mv	a5,t0
80001c94:	00000813          	li	a6,0
80001c98:	00079703          	lh	a4,0(a5)
80001c9c:	00061883          	lh	a7,0(a2)
80001ca0:	00278793          	addi	a5,a5,2
80001ca4:	00660633          	add	a2,a2,t1
80001ca8:	03170733          	mul	a4,a4,a7
80001cac:	00e80833          	add	a6,a6,a4
80001cb0:	fefe14e3          	bne	t3,a5,80001c98 <matrix_mul_matrix+0x40>
80001cb4:	010ea023          	sw	a6,0(t4)
80001cb8:	001f8793          	addi	a5,t6,1 # ffff8001 <_end+0x7fff2041>
80001cbc:	004e8e93          	addi	t4,t4,4
80001cc0:	002f0f13          	addi	t5,t5,2
80001cc4:	00f50663          	beq	a0,a5,80001cd0 <matrix_mul_matrix+0x78>
80001cc8:	00078f93          	mv	t6,a5
80001ccc:	fc1ff06f          	j	80001c8c <matrix_mul_matrix+0x34>
80001cd0:	006282b3          	add	t0,t0,t1
80001cd4:	00a383b3          	add	t2,t2,a0
80001cd8:	006e0e33          	add	t3,t3,t1
80001cdc:	01f68663          	beq	a3,t6,80001ce8 <matrix_mul_matrix+0x90>
80001ce0:	00168693          	addi	a3,a3,1
80001ce4:	f99ff06f          	j	80001c7c <matrix_mul_matrix+0x24>
80001ce8:	00c12403          	lw	s0,12(sp)
80001cec:	01010113          	addi	sp,sp,16
80001cf0:	00008067          	ret
80001cf4:	00008067          	ret

80001cf8 <matrix_mul_matrix_bitextract>:
80001cf8:	0a050863          	beqz	a0,80001da8 <matrix_mul_matrix_bitextract+0xb0>
80001cfc:	ff010113          	addi	sp,sp,-16
80001d00:	00151313          	slli	t1,a0,0x1
80001d04:	00812623          	sw	s0,12(sp)
80001d08:	00060293          	mv	t0,a2
80001d0c:	00068413          	mv	s0,a3
80001d10:	00660e33          	add	t3,a2,t1
80001d14:	00000393          	li	t2,0
80001d18:	00000693          	li	a3,0
80001d1c:	00239e93          	slli	t4,t2,0x2
80001d20:	01d58eb3          	add	t4,a1,t4
80001d24:	00040f13          	mv	t5,s0
80001d28:	00000f93          	li	t6,0
80001d2c:	000f0813          	mv	a6,t5
80001d30:	00028613          	mv	a2,t0
80001d34:	00000893          	li	a7,0
80001d38:	00081703          	lh	a4,0(a6)
80001d3c:	00061783          	lh	a5,0(a2)
80001d40:	00260613          	addi	a2,a2,2
80001d44:	00680833          	add	a6,a6,t1
80001d48:	02e787b3          	mul	a5,a5,a4
80001d4c:	4027d713          	srai	a4,a5,0x2
80001d50:	4057d793          	srai	a5,a5,0x5
80001d54:	00f77713          	andi	a4,a4,15
80001d58:	07f7f793          	andi	a5,a5,127
80001d5c:	02f707b3          	mul	a5,a4,a5
80001d60:	00f888b3          	add	a7,a7,a5
80001d64:	fcce1ae3          	bne	t3,a2,80001d38 <matrix_mul_matrix_bitextract+0x40>
80001d68:	011ea023          	sw	a7,0(t4)
80001d6c:	001f8793          	addi	a5,t6,1
80001d70:	004e8e93          	addi	t4,t4,4
80001d74:	002f0f13          	addi	t5,t5,2
80001d78:	00f50663          	beq	a0,a5,80001d84 <matrix_mul_matrix_bitextract+0x8c>
80001d7c:	00078f93          	mv	t6,a5
80001d80:	fadff06f          	j	80001d2c <matrix_mul_matrix_bitextract+0x34>
80001d84:	006282b3          	add	t0,t0,t1
80001d88:	00a383b3          	add	t2,t2,a0
80001d8c:	006e0e33          	add	t3,t3,t1
80001d90:	01f68663          	beq	a3,t6,80001d9c <matrix_mul_matrix_bitextract+0xa4>
80001d94:	00168693          	addi	a3,a3,1
80001d98:	f85ff06f          	j	80001d1c <matrix_mul_matrix_bitextract+0x24>
80001d9c:	00c12403          	lw	s0,12(sp)
80001da0:	01010113          	addi	sp,sp,16
80001da4:	00008067          	ret
80001da8:	00008067          	ret

80001dac <matrix_test>:
80001dac:	fd010113          	addi	sp,sp,-48
80001db0:	03212023          	sw	s2,32(sp)
80001db4:	01312e23          	sw	s3,28(sp)
80001db8:	01512a23          	sw	s5,20(sp)
80001dbc:	02112623          	sw	ra,44(sp)
80001dc0:	02812423          	sw	s0,40(sp)
80001dc4:	00058a93          	mv	s5,a1
80001dc8:	00060913          	mv	s2,a2
80001dcc:	00068993          	mv	s3,a3
80001dd0:	34050663          	beqz	a0,8000211c <matrix_test+0x370>
80001dd4:	00151593          	slli	a1,a0,0x1
80001dd8:	02912223          	sw	s1,36(sp)
80001ddc:	01412c23          	sw	s4,24(sp)
80001de0:	00b60633          	add	a2,a2,a1
80001de4:	00070a13          	mv	s4,a4
80001de8:	fffff4b7          	lui	s1,0xfffff
80001dec:	01612823          	sw	s6,16(sp)
80001df0:	01712623          	sw	s7,12(sp)
80001df4:	01812423          	sw	s8,8(sp)
80001df8:	01912223          	sw	s9,4(sp)
80001dfc:	00060713          	mv	a4,a2
80001e00:	009a64b3          	or	s1,s4,s1
80001e04:	00000b13          	li	s6,0
80001e08:	40b707b3          	sub	a5,a4,a1
80001e0c:	0007d683          	lhu	a3,0(a5)
80001e10:	00278793          	addi	a5,a5,2
80001e14:	00da06b3          	add	a3,s4,a3
80001e18:	fed79f23          	sh	a3,-2(a5)
80001e1c:	fee798e3          	bne	a5,a4,80001e0c <matrix_test+0x60>
80001e20:	001b0413          	addi	s0,s6,1
80001e24:	00b78733          	add	a4,a5,a1
80001e28:	00850663          	beq	a0,s0,80001e34 <matrix_test+0x88>
80001e2c:	00040b13          	mv	s6,s0
80001e30:	fd9ff06f          	j	80001e08 <matrix_test+0x5c>
80001e34:	00000513          	li	a0,0
80001e38:	00000813          	li	a6,0
80001e3c:	00251713          	slli	a4,a0,0x2
80001e40:	00ea8733          	add	a4,s5,a4
80001e44:	40b607b3          	sub	a5,a2,a1
80001e48:	00079683          	lh	a3,0(a5)
80001e4c:	00278793          	addi	a5,a5,2
80001e50:	00470713          	addi	a4,a4,4
80001e54:	034686b3          	mul	a3,a3,s4
80001e58:	fed72e23          	sw	a3,-4(a4)
80001e5c:	fef616e3          	bne	a2,a5,80001e48 <matrix_test+0x9c>
80001e60:	00850533          	add	a0,a0,s0
80001e64:	00b60633          	add	a2,a2,a1
80001e68:	01680663          	beq	a6,s6,80001e74 <matrix_test+0xc8>
80001e6c:	00180813          	addi	a6,a6,1
80001e70:	fcdff06f          	j	80001e3c <matrix_test+0x90>
80001e74:	00241c13          	slli	s8,s0,0x2
80001e78:	018a8bb3          	add	s7,s5,s8
80001e7c:	000b8813          	mv	a6,s7
80001e80:	00000693          	li	a3,0
80001e84:	00000713          	li	a4,0
80001e88:	00000513          	li	a0,0
80001e8c:	00000893          	li	a7,0
80001e90:	418807b3          	sub	a5,a6,s8
80001e94:	0180006f          	j	80001eac <matrix_test+0x100>
80001e98:	00c505b3          	add	a1,a0,a2
80001e9c:	01059513          	slli	a0,a1,0x10
80001ea0:	00478793          	addi	a5,a5,4
80001ea4:	41055513          	srai	a0,a0,0x10
80001ea8:	02f80863          	beq	a6,a5,80001ed8 <matrix_test+0x12c>
80001eac:	00068613          	mv	a2,a3
80001eb0:	0007a683          	lw	a3,0(a5)
80001eb4:	00a50593          	addi	a1,a0,10
80001eb8:	00d70733          	add	a4,a4,a3
80001ebc:	00d62633          	slt	a2,a2,a3
80001ec0:	fce4dce3          	bge	s1,a4,80001e98 <matrix_test+0xec>
80001ec4:	01059513          	slli	a0,a1,0x10
80001ec8:	00478793          	addi	a5,a5,4
80001ecc:	00000713          	li	a4,0
80001ed0:	41055513          	srai	a0,a0,0x10
80001ed4:	fcf81ce3          	bne	a6,a5,80001eac <matrix_test+0x100>
80001ed8:	01880833          	add	a6,a6,s8
80001edc:	011b0663          	beq	s6,a7,80001ee8 <matrix_test+0x13c>
80001ee0:	00188893          	addi	a7,a7,1
80001ee4:	fadff06f          	j	80001e90 <matrix_test+0xe4>
80001ee8:	00000593          	li	a1,0
80001eec:	098010ef          	jal	80002f84 <crc16>
80001ef0:	00098693          	mv	a3,s3
80001ef4:	00050c93          	mv	s9,a0
80001ef8:	00090613          	mv	a2,s2
80001efc:	00040513          	mv	a0,s0
80001f00:	000a8593          	mv	a1,s5
80001f04:	cfdff0ef          	jal	80001c00 <matrix_mul_vect>
80001f08:	00000693          	li	a3,0
80001f0c:	00000713          	li	a4,0
80001f10:	00000513          	li	a0,0
80001f14:	00000813          	li	a6,0
80001f18:	418b87b3          	sub	a5,s7,s8
80001f1c:	0180006f          	j	80001f34 <matrix_test+0x188>
80001f20:	00c505b3          	add	a1,a0,a2
80001f24:	01059513          	slli	a0,a1,0x10
80001f28:	00478793          	addi	a5,a5,4
80001f2c:	41055513          	srai	a0,a0,0x10
80001f30:	03778863          	beq	a5,s7,80001f60 <matrix_test+0x1b4>
80001f34:	00068613          	mv	a2,a3
80001f38:	0007a683          	lw	a3,0(a5)
80001f3c:	00a50593          	addi	a1,a0,10
80001f40:	00d70733          	add	a4,a4,a3
80001f44:	00d62633          	slt	a2,a2,a3
80001f48:	fce4dce3          	bge	s1,a4,80001f20 <matrix_test+0x174>
80001f4c:	01059513          	slli	a0,a1,0x10
80001f50:	00478793          	addi	a5,a5,4
80001f54:	00000713          	li	a4,0
80001f58:	41055513          	srai	a0,a0,0x10
80001f5c:	fd779ce3          	bne	a5,s7,80001f34 <matrix_test+0x188>
80001f60:	01878bb3          	add	s7,a5,s8
80001f64:	01680663          	beq	a6,s6,80001f70 <matrix_test+0x1c4>
80001f68:	00180813          	addi	a6,a6,1
80001f6c:	fadff06f          	j	80001f18 <matrix_test+0x16c>
80001f70:	000c8593          	mv	a1,s9
80001f74:	010010ef          	jal	80002f84 <crc16>
80001f78:	00098693          	mv	a3,s3
80001f7c:	00050b13          	mv	s6,a0
80001f80:	00090613          	mv	a2,s2
80001f84:	00040513          	mv	a0,s0
80001f88:	000a8593          	mv	a1,s5
80001f8c:	ccdff0ef          	jal	80001c58 <matrix_mul_matrix>
80001f90:	00000313          	li	t1,0
80001f94:	00000793          	li	a5,0
80001f98:	00000693          	li	a3,0
80001f9c:	00000513          	li	a0,0
80001fa0:	00000893          	li	a7,0
80001fa4:	00231613          	slli	a2,t1,0x2
80001fa8:	00ca8633          	add	a2,s5,a2
80001fac:	00000593          	li	a1,0
80001fb0:	01c0006f          	j	80001fcc <matrix_test+0x220>
80001fb4:	00e50833          	add	a6,a0,a4
80001fb8:	01081513          	slli	a0,a6,0x10
80001fbc:	00158593          	addi	a1,a1,1
80001fc0:	41055513          	srai	a0,a0,0x10
80001fc4:	00460613          	addi	a2,a2,4
80001fc8:	0285fa63          	bgeu	a1,s0,80001ffc <matrix_test+0x250>
80001fcc:	00078713          	mv	a4,a5
80001fd0:	00062783          	lw	a5,0(a2)
80001fd4:	00a50813          	addi	a6,a0,10
80001fd8:	00f686b3          	add	a3,a3,a5
80001fdc:	00f72733          	slt	a4,a4,a5
80001fe0:	fcd4dae3          	bge	s1,a3,80001fb4 <matrix_test+0x208>
80001fe4:	01081513          	slli	a0,a6,0x10
80001fe8:	00158593          	addi	a1,a1,1
80001fec:	00000693          	li	a3,0
80001ff0:	41055513          	srai	a0,a0,0x10
80001ff4:	00460613          	addi	a2,a2,4
80001ff8:	fc85eae3          	bltu	a1,s0,80001fcc <matrix_test+0x220>
80001ffc:	00188893          	addi	a7,a7,1
80002000:	00830333          	add	t1,t1,s0
80002004:	fa88e0e3          	bltu	a7,s0,80001fa4 <matrix_test+0x1f8>
80002008:	000b0593          	mv	a1,s6
8000200c:	779000ef          	jal	80002f84 <crc16>
80002010:	00098693          	mv	a3,s3
80002014:	00050b13          	mv	s6,a0
80002018:	00090613          	mv	a2,s2
8000201c:	00040513          	mv	a0,s0
80002020:	000a8593          	mv	a1,s5
80002024:	cd5ff0ef          	jal	80001cf8 <matrix_mul_matrix_bitextract>
80002028:	00000313          	li	t1,0
8000202c:	00000793          	li	a5,0
80002030:	00000693          	li	a3,0
80002034:	00000513          	li	a0,0
80002038:	00000893          	li	a7,0
8000203c:	00231613          	slli	a2,t1,0x2
80002040:	00ca8633          	add	a2,s5,a2
80002044:	00000593          	li	a1,0
80002048:	01c0006f          	j	80002064 <matrix_test+0x2b8>
8000204c:	00e50833          	add	a6,a0,a4
80002050:	01081513          	slli	a0,a6,0x10
80002054:	00158593          	addi	a1,a1,1
80002058:	41055513          	srai	a0,a0,0x10
8000205c:	00460613          	addi	a2,a2,4
80002060:	0285fa63          	bgeu	a1,s0,80002094 <matrix_test+0x2e8>
80002064:	00078713          	mv	a4,a5
80002068:	00062783          	lw	a5,0(a2)
8000206c:	00a50813          	addi	a6,a0,10
80002070:	00f686b3          	add	a3,a3,a5
80002074:	00f72733          	slt	a4,a4,a5
80002078:	fcd4dae3          	bge	s1,a3,8000204c <matrix_test+0x2a0>
8000207c:	01081513          	slli	a0,a6,0x10
80002080:	00158593          	addi	a1,a1,1
80002084:	00000693          	li	a3,0
80002088:	41055513          	srai	a0,a0,0x10
8000208c:	00460613          	addi	a2,a2,4
80002090:	fc85eae3          	bltu	a1,s0,80002064 <matrix_test+0x2b8>
80002094:	00188893          	addi	a7,a7,1
80002098:	00830333          	add	t1,t1,s0
8000209c:	fa88e0e3          	bltu	a7,s0,8000203c <matrix_test+0x290>
800020a0:	000b0593          	mv	a1,s6
800020a4:	6e1000ef          	jal	80002f84 <crc16>
800020a8:	00000593          	li	a1,0
800020ac:	00000613          	li	a2,0
800020b0:	00159793          	slli	a5,a1,0x1
800020b4:	00f907b3          	add	a5,s2,a5
800020b8:	00000713          	li	a4,0
800020bc:	0007d683          	lhu	a3,0(a5)
800020c0:	00170713          	addi	a4,a4,1
800020c4:	00278793          	addi	a5,a5,2
800020c8:	414686b3          	sub	a3,a3,s4
800020cc:	fed79f23          	sh	a3,-2(a5)
800020d0:	fe8766e3          	bltu	a4,s0,800020bc <matrix_test+0x310>
800020d4:	00160613          	addi	a2,a2,1
800020d8:	008585b3          	add	a1,a1,s0
800020dc:	fc866ae3          	bltu	a2,s0,800020b0 <matrix_test+0x304>
800020e0:	02412483          	lw	s1,36(sp)
800020e4:	01812a03          	lw	s4,24(sp)
800020e8:	01012b03          	lw	s6,16(sp)
800020ec:	00c12b83          	lw	s7,12(sp)
800020f0:	00812c03          	lw	s8,8(sp)
800020f4:	00412c83          	lw	s9,4(sp)
800020f8:	02c12083          	lw	ra,44(sp)
800020fc:	02812403          	lw	s0,40(sp)
80002100:	01051513          	slli	a0,a0,0x10
80002104:	02012903          	lw	s2,32(sp)
80002108:	01c12983          	lw	s3,28(sp)
8000210c:	01412a83          	lw	s5,20(sp)
80002110:	41055513          	srai	a0,a0,0x10
80002114:	03010113          	addi	sp,sp,48
80002118:	00008067          	ret
8000211c:	00000593          	li	a1,0
80002120:	665000ef          	jal	80002f84 <crc16>
80002124:	00098693          	mv	a3,s3
80002128:	00090613          	mv	a2,s2
8000212c:	00050413          	mv	s0,a0
80002130:	000a8593          	mv	a1,s5
80002134:	00000513          	li	a0,0
80002138:	ac9ff0ef          	jal	80001c00 <matrix_mul_vect>
8000213c:	00040593          	mv	a1,s0
80002140:	00000513          	li	a0,0
80002144:	641000ef          	jal	80002f84 <crc16>
80002148:	00098693          	mv	a3,s3
8000214c:	00090613          	mv	a2,s2
80002150:	00050413          	mv	s0,a0
80002154:	000a8593          	mv	a1,s5
80002158:	00000513          	li	a0,0
8000215c:	afdff0ef          	jal	80001c58 <matrix_mul_matrix>
80002160:	00040593          	mv	a1,s0
80002164:	00000513          	li	a0,0
80002168:	61d000ef          	jal	80002f84 <crc16>
8000216c:	00050413          	mv	s0,a0
80002170:	000a8593          	mv	a1,s5
80002174:	00098693          	mv	a3,s3
80002178:	00090613          	mv	a2,s2
8000217c:	00000513          	li	a0,0
80002180:	b79ff0ef          	jal	80001cf8 <matrix_mul_matrix_bitextract>
80002184:	00040593          	mv	a1,s0
80002188:	00000513          	li	a0,0
8000218c:	5f9000ef          	jal	80002f84 <crc16>
80002190:	f69ff06f          	j	800020f8 <matrix_test+0x34c>

80002194 <core_bench_matrix>:
80002194:	ff010113          	addi	sp,sp,-16
80002198:	00812423          	sw	s0,8(sp)
8000219c:	00852683          	lw	a3,8(a0)
800021a0:	00060413          	mv	s0,a2
800021a4:	00058713          	mv	a4,a1
800021a8:	00452603          	lw	a2,4(a0)
800021ac:	00c52583          	lw	a1,12(a0)
800021b0:	00052503          	lw	a0,0(a0)
800021b4:	00112623          	sw	ra,12(sp)
800021b8:	bf5ff0ef          	jal	80001dac <matrix_test>
800021bc:	00040593          	mv	a1,s0
800021c0:	00812403          	lw	s0,8(sp)
800021c4:	00c12083          	lw	ra,12(sp)
800021c8:	01010113          	addi	sp,sp,16
800021cc:	5b90006f          	j	80002f84 <crc16>

800021d0 <core_init_state>:
800021d0:	fff50313          	addi	t1,a0,-1
800021d4:	00100e93          	li	t4,1
800021d8:	106efe63          	bgeu	t4,t1,800022f4 <core_init_state+0x124>
800021dc:	01d585b3          	add	a1,a1,t4
800021e0:	01059593          	slli	a1,a1,0x10
800021e4:	0105d593          	srli	a1,a1,0x10
800021e8:	ff010113          	addi	sp,sp,-16
800021ec:	800058b7          	lui	a7,0x80005
800021f0:	01b59813          	slli	a6,a1,0x1b
800021f4:	00812623          	sw	s0,12(sp)
800021f8:	00700e13          	li	t3,7
800021fc:	0075f693          	andi	a3,a1,7
80002200:	2a888893          	addi	a7,a7,680 # 800052a8 <intpat>
80002204:	00000713          	li	a4,0
80002208:	00400f13          	li	t5,4
8000220c:	02c00f93          	li	t6,44
80002210:	01e85793          	srli	a5,a6,0x1e
80002214:	07c68e63          	beq	a3,t3,80002290 <core_init_state+0xc0>
80002218:	0cdf6463          	bltu	t5,a3,800022e0 <core_init_state+0x110>
8000221c:	ffd68693          	addi	a3,a3,-3
80002220:	01069693          	slli	a3,a3,0x10
80002224:	00279793          	slli	a5,a5,0x2
80002228:	0106d693          	srli	a3,a3,0x10
8000222c:	00f887b3          	add	a5,a7,a5
80002230:	0adee263          	bltu	t4,a3,800022d4 <core_init_state+0x104>
80002234:	0107a783          	lw	a5,16(a5)
80002238:	00800293          	li	t0,8
8000223c:	00170693          	addi	a3,a4,1
80002240:	00568433          	add	s0,a3,t0
80002244:	06647463          	bgeu	s0,t1,800022ac <core_init_state+0xdc>
80002248:	00158593          	addi	a1,a1,1
8000224c:	00e60733          	add	a4,a2,a4
80002250:	01059593          	slli	a1,a1,0x10
80002254:	0105d593          	srli	a1,a1,0x10
80002258:	00070693          	mv	a3,a4
8000225c:	005783b3          	add	t2,a5,t0
80002260:	0007c803          	lbu	a6,0(a5)
80002264:	00178793          	addi	a5,a5,1
80002268:	00168693          	addi	a3,a3,1
8000226c:	ff068fa3          	sb	a6,-1(a3)
80002270:	fef398e3          	bne	t2,a5,80002260 <core_init_state+0x90>
80002274:	00570733          	add	a4,a4,t0
80002278:	01f70023          	sb	t6,0(a4)
8000227c:	01b59813          	slli	a6,a1,0x1b
80002280:	0075f693          	andi	a3,a1,7
80002284:	00040713          	mv	a4,s0
80002288:	01e85793          	srli	a5,a6,0x1e
8000228c:	f9c696e3          	bne	a3,t3,80002218 <core_init_state+0x48>
80002290:	00279793          	slli	a5,a5,0x2
80002294:	00800293          	li	t0,8
80002298:	00170693          	addi	a3,a4,1
8000229c:	00f887b3          	add	a5,a7,a5
800022a0:	00568433          	add	s0,a3,t0
800022a4:	0307a783          	lw	a5,48(a5)
800022a8:	fa6460e3          	bltu	s0,t1,80002248 <core_init_state+0x78>
800022ac:	00a76663          	bltu	a4,a0,800022b8 <core_init_state+0xe8>
800022b0:	0180006f          	j	800022c8 <core_init_state+0xf8>
800022b4:	00168693          	addi	a3,a3,1
800022b8:	00e60733          	add	a4,a2,a4
800022bc:	00070023          	sb	zero,0(a4)
800022c0:	00068713          	mv	a4,a3
800022c4:	fea6e8e3          	bltu	a3,a0,800022b4 <core_init_state+0xe4>
800022c8:	00c12403          	lw	s0,12(sp)
800022cc:	01010113          	addi	sp,sp,16
800022d0:	00008067          	ret
800022d4:	0007a783          	lw	a5,0(a5)
800022d8:	00400293          	li	t0,4
800022dc:	f61ff06f          	j	8000223c <core_init_state+0x6c>
800022e0:	00279793          	slli	a5,a5,0x2
800022e4:	00f887b3          	add	a5,a7,a5
800022e8:	0207a783          	lw	a5,32(a5)
800022ec:	00800293          	li	t0,8
800022f0:	f4dff06f          	j	8000223c <core_init_state+0x6c>
800022f4:	000e8693          	mv	a3,t4
800022f8:	00000713          	li	a4,0
800022fc:	0080006f          	j	80002304 <core_init_state+0x134>
80002300:	00168693          	addi	a3,a3,1
80002304:	00e60733          	add	a4,a2,a4
80002308:	00070023          	sb	zero,0(a4)
8000230c:	00068713          	mv	a4,a3
80002310:	fea6e8e3          	bltu	a3,a0,80002300 <core_init_state+0x130>
80002314:	00008067          	ret

80002318 <core_state_transition>:
80002318:	00052683          	lw	a3,0(a0)
8000231c:	0006c783          	lbu	a5,0(a3)
80002320:	04078263          	beqz	a5,80002364 <core_state_transition+0x4c>
80002324:	02c00713          	li	a4,44
80002328:	20e78263          	beq	a5,a4,8000252c <core_state_transition+0x214>
8000232c:	02e00813          	li	a6,46
80002330:	1d078c63          	beq	a5,a6,80002508 <core_state_transition+0x1f0>
80002334:	02f86e63          	bltu	a6,a5,80002370 <core_state_transition+0x58>
80002338:	fd578793          	addi	a5,a5,-43
8000233c:	0fd7f793          	andi	a5,a5,253
80002340:	1e078c63          	beqz	a5,80002538 <core_state_transition+0x220>
80002344:	0045a703          	lw	a4,4(a1)
80002348:	0005a783          	lw	a5,0(a1)
8000234c:	00168693          	addi	a3,a3,1
80002350:	00170713          	addi	a4,a4,1
80002354:	00178793          	addi	a5,a5,1
80002358:	00f5a023          	sw	a5,0(a1)
8000235c:	00e5a223          	sw	a4,4(a1)
80002360:	00100793          	li	a5,1
80002364:	00d52023          	sw	a3,0(a0)
80002368:	00078513          	mv	a0,a5
8000236c:	00008067          	ret
80002370:	fd078793          	addi	a5,a5,-48
80002374:	0ff7f793          	zext.b	a5,a5
80002378:	00900613          	li	a2,9
8000237c:	fcf664e3          	bltu	a2,a5,80002344 <core_state_transition+0x2c>
80002380:	0005a603          	lw	a2,0(a1)
80002384:	00168793          	addi	a5,a3,1
80002388:	00160613          	addi	a2,a2,1
8000238c:	00c5a023          	sw	a2,0(a1)
80002390:	0016c683          	lbu	a3,1(a3)
80002394:	1e068a63          	beqz	a3,80002588 <core_state_transition+0x270>
80002398:	20e68663          	beq	a3,a4,800025a4 <core_state_transition+0x28c>
8000239c:	02e00713          	li	a4,46
800023a0:	04e68663          	beq	a3,a4,800023ec <core_state_transition+0xd4>
800023a4:	fd068693          	addi	a3,a3,-48
800023a8:	0ff6f693          	zext.b	a3,a3
800023ac:	00900713          	li	a4,9
800023b0:	02d77463          	bgeu	a4,a3,800023d8 <core_state_transition+0xc0>
800023b4:	0105a703          	lw	a4,16(a1)
800023b8:	00178693          	addi	a3,a5,1
800023bc:	00100793          	li	a5,1
800023c0:	00f70733          	add	a4,a4,a5
800023c4:	00e5a823          	sw	a4,16(a1)
800023c8:	00d52023          	sw	a3,0(a0)
800023cc:	00078513          	mv	a0,a5
800023d0:	00008067          	ret
800023d4:	00c5a423          	sw	a2,8(a1)
800023d8:	0017c683          	lbu	a3,1(a5)
800023dc:	00178793          	addi	a5,a5,1
800023e0:	1a068463          	beqz	a3,80002588 <core_state_transition+0x270>
800023e4:	02c00713          	li	a4,44
800023e8:	fb1ff06f          	j	80002398 <core_state_transition+0x80>
800023ec:	0105a703          	lw	a4,16(a1)
800023f0:	00170713          	addi	a4,a4,1
800023f4:	00e5a823          	sw	a4,16(a1)
800023f8:	0017c683          	lbu	a3,1(a5)
800023fc:	00178793          	addi	a5,a5,1
80002400:	12068063          	beqz	a3,80002520 <core_state_transition+0x208>
80002404:	02c00713          	li	a4,44
80002408:	18e68663          	beq	a3,a4,80002594 <core_state_transition+0x27c>
8000240c:	0df6f713          	andi	a4,a3,223
80002410:	04500613          	li	a2,69
80002414:	0cc71663          	bne	a4,a2,800024e0 <core_state_transition+0x1c8>
80002418:	0145a703          	lw	a4,20(a1)
8000241c:	00178693          	addi	a3,a5,1
80002420:	00170713          	addi	a4,a4,1
80002424:	00e5aa23          	sw	a4,20(a1)
80002428:	0017c703          	lbu	a4,1(a5)
8000242c:	18070863          	beqz	a4,800025bc <core_state_transition+0x2a4>
80002430:	02c00613          	li	a2,44
80002434:	18c70863          	beq	a4,a2,800025c4 <core_state_transition+0x2ac>
80002438:	00c5a683          	lw	a3,12(a1)
8000243c:	fd570713          	addi	a4,a4,-43
80002440:	0fd77713          	andi	a4,a4,253
80002444:	00168693          	addi	a3,a3,1
80002448:	00d5a623          	sw	a3,12(a1)
8000244c:	08071463          	bnez	a4,800024d4 <core_state_transition+0x1bc>
80002450:	0027c703          	lbu	a4,2(a5)
80002454:	00278693          	addi	a3,a5,2
80002458:	14070e63          	beqz	a4,800025b4 <core_state_transition+0x29c>
8000245c:	18c70463          	beq	a4,a2,800025e4 <core_state_transition+0x2cc>
80002460:	0185a603          	lw	a2,24(a1)
80002464:	fd070713          	addi	a4,a4,-48
80002468:	0ff77713          	zext.b	a4,a4
8000246c:	00160613          	addi	a2,a2,1
80002470:	00900813          	li	a6,9
80002474:	00c5ac23          	sw	a2,24(a1)
80002478:	00e87c63          	bgeu	a6,a4,80002490 <core_state_transition+0x178>
8000247c:	00378693          	addi	a3,a5,3
80002480:	00100793          	li	a5,1
80002484:	00d52023          	sw	a3,0(a0)
80002488:	00078513          	mv	a0,a5
8000248c:	00008067          	ret
80002490:	00068613          	mv	a2,a3
80002494:	0016c703          	lbu	a4,1(a3)
80002498:	00168693          	addi	a3,a3,1
8000249c:	02c00893          	li	a7,44
800024a0:	fd070793          	addi	a5,a4,-48
800024a4:	0ff7f793          	zext.b	a5,a5
800024a8:	12070463          	beqz	a4,800025d0 <core_state_transition+0x2b8>
800024ac:	13170663          	beq	a4,a7,800025d8 <core_state_transition+0x2c0>
800024b0:	fef870e3          	bgeu	a6,a5,80002490 <core_state_transition+0x178>
800024b4:	0045a703          	lw	a4,4(a1)
800024b8:	00100793          	li	a5,1
800024bc:	00260693          	addi	a3,a2,2
800024c0:	00f70733          	add	a4,a4,a5
800024c4:	00e5a223          	sw	a4,4(a1)
800024c8:	00d52023          	sw	a3,0(a0)
800024cc:	00078513          	mv	a0,a5
800024d0:	00008067          	ret
800024d4:	00278693          	addi	a3,a5,2
800024d8:	00100793          	li	a5,1
800024dc:	e89ff06f          	j	80002364 <core_state_transition+0x4c>
800024e0:	fd068693          	addi	a3,a3,-48
800024e4:	0ff6f693          	zext.b	a3,a3
800024e8:	00900713          	li	a4,9
800024ec:	f0d776e3          	bgeu	a4,a3,800023f8 <core_state_transition+0xe0>
800024f0:	0145a703          	lw	a4,20(a1)
800024f4:	00178693          	addi	a3,a5,1
800024f8:	00100793          	li	a5,1
800024fc:	00f70733          	add	a4,a4,a5
80002500:	00e5aa23          	sw	a4,20(a1)
80002504:	e61ff06f          	j	80002364 <core_state_transition+0x4c>
80002508:	0005a603          	lw	a2,0(a1)
8000250c:	00168793          	addi	a5,a3,1
80002510:	00160613          	addi	a2,a2,1
80002514:	00c5a023          	sw	a2,0(a1)
80002518:	0016c683          	lbu	a3,1(a3)
8000251c:	ee0696e3          	bnez	a3,80002408 <core_state_transition+0xf0>
80002520:	00078693          	mv	a3,a5
80002524:	00500793          	li	a5,5
80002528:	e3dff06f          	j	80002364 <core_state_transition+0x4c>
8000252c:	00000793          	li	a5,0
80002530:	00168693          	addi	a3,a3,1
80002534:	e31ff06f          	j	80002364 <core_state_transition+0x4c>
80002538:	0005a603          	lw	a2,0(a1)
8000253c:	00168793          	addi	a5,a3,1
80002540:	00160613          	addi	a2,a2,1
80002544:	00c5a023          	sw	a2,0(a1)
80002548:	0016c303          	lbu	t1,1(a3)
8000254c:	0a030a63          	beqz	t1,80002600 <core_state_transition+0x2e8>
80002550:	0ae30063          	beq	t1,a4,800025f0 <core_state_transition+0x2d8>
80002554:	0085a603          	lw	a2,8(a1)
80002558:	fd030713          	addi	a4,t1,-48
8000255c:	0ff77713          	zext.b	a4,a4
80002560:	00900893          	li	a7,9
80002564:	00160613          	addi	a2,a2,1
80002568:	e6e8f6e3          	bgeu	a7,a4,800023d4 <core_state_transition+0xbc>
8000256c:	01030a63          	beq	t1,a6,80002580 <core_state_transition+0x268>
80002570:	00c5a423          	sw	a2,8(a1)
80002574:	00268693          	addi	a3,a3,2
80002578:	00100793          	li	a5,1
8000257c:	de9ff06f          	j	80002364 <core_state_transition+0x4c>
80002580:	00c5a423          	sw	a2,8(a1)
80002584:	e75ff06f          	j	800023f8 <core_state_transition+0xe0>
80002588:	00078693          	mv	a3,a5
8000258c:	00400793          	li	a5,4
80002590:	dd5ff06f          	j	80002364 <core_state_transition+0x4c>
80002594:	00078693          	mv	a3,a5
80002598:	00168693          	addi	a3,a3,1
8000259c:	00500793          	li	a5,5
800025a0:	dc5ff06f          	j	80002364 <core_state_transition+0x4c>
800025a4:	00078693          	mv	a3,a5
800025a8:	00168693          	addi	a3,a3,1
800025ac:	00400793          	li	a5,4
800025b0:	db5ff06f          	j	80002364 <core_state_transition+0x4c>
800025b4:	00600793          	li	a5,6
800025b8:	dadff06f          	j	80002364 <core_state_transition+0x4c>
800025bc:	00300793          	li	a5,3
800025c0:	da5ff06f          	j	80002364 <core_state_transition+0x4c>
800025c4:	00300793          	li	a5,3
800025c8:	00168693          	addi	a3,a3,1
800025cc:	d99ff06f          	j	80002364 <core_state_transition+0x4c>
800025d0:	00700793          	li	a5,7
800025d4:	d91ff06f          	j	80002364 <core_state_transition+0x4c>
800025d8:	00700793          	li	a5,7
800025dc:	00168693          	addi	a3,a3,1
800025e0:	d85ff06f          	j	80002364 <core_state_transition+0x4c>
800025e4:	00600793          	li	a5,6
800025e8:	00168693          	addi	a3,a3,1
800025ec:	d79ff06f          	j	80002364 <core_state_transition+0x4c>
800025f0:	00078693          	mv	a3,a5
800025f4:	00168693          	addi	a3,a3,1
800025f8:	00200793          	li	a5,2
800025fc:	d69ff06f          	j	80002364 <core_state_transition+0x4c>
80002600:	00078693          	mv	a3,a5
80002604:	00200793          	li	a5,2
80002608:	d5dff06f          	j	80002364 <core_state_transition+0x4c>

8000260c <core_bench_state>:
8000260c:	f8010113          	addi	sp,sp,-128
80002610:	07312623          	sw	s3,108(sp)
80002614:	07412423          	sw	s4,104(sp)
80002618:	01010993          	addi	s3,sp,16
8000261c:	03010a13          	addi	s4,sp,48
80002620:	06812c23          	sw	s0,120(sp)
80002624:	06912a23          	sw	s1,116(sp)
80002628:	07212823          	sw	s2,112(sp)
8000262c:	07612023          	sw	s6,96(sp)
80002630:	05712e23          	sw	s7,92(sp)
80002634:	05812c23          	sw	s8,88(sp)
80002638:	05912a23          	sw	s9,84(sp)
8000263c:	00078493          	mv	s1,a5
80002640:	00070b13          	mv	s6,a4
80002644:	06112e23          	sw	ra,124(sp)
80002648:	07512223          	sw	s5,100(sp)
8000264c:	00058413          	mv	s0,a1
80002650:	00b12623          	sw	a1,12(sp)
80002654:	00050c93          	mv	s9,a0
80002658:	00060c13          	mv	s8,a2
8000265c:	00068b93          	mv	s7,a3
80002660:	000a0793          	mv	a5,s4
80002664:	00098913          	mv	s2,s3
80002668:	00098713          	mv	a4,s3
8000266c:	0007a023          	sw	zero,0(a5)
80002670:	00072023          	sw	zero,0(a4)
80002674:	00478793          	addi	a5,a5,4
80002678:	05010693          	addi	a3,sp,80
8000267c:	00470713          	addi	a4,a4,4
80002680:	fed796e3          	bne	a5,a3,8000266c <core_bench_state+0x60>
80002684:	00044783          	lbu	a5,0(s0)
80002688:	00c10a93          	addi	s5,sp,12
8000268c:	10078a63          	beqz	a5,800027a0 <core_bench_state+0x194>
80002690:	03010593          	addi	a1,sp,48
80002694:	000a8513          	mv	a0,s5
80002698:	c81ff0ef          	jal	80002318 <core_state_transition>
8000269c:	00251713          	slli	a4,a0,0x2
800026a0:	00e98733          	add	a4,s3,a4
800026a4:	00c12683          	lw	a3,12(sp)
800026a8:	00072783          	lw	a5,0(a4)
800026ac:	0006c683          	lbu	a3,0(a3)
800026b0:	00178793          	addi	a5,a5,1
800026b4:	00f72023          	sw	a5,0(a4)
800026b8:	fc069ce3          	bnez	a3,80002690 <core_bench_state+0x84>
800026bc:	00812623          	sw	s0,12(sp)
800026c0:	01940cb3          	add	s9,s0,s9
800026c4:	03947863          	bgeu	s0,s9,800026f4 <core_bench_state+0xe8>
800026c8:	00040793          	mv	a5,s0
800026cc:	02c00613          	li	a2,44
800026d0:	0007c703          	lbu	a4,0(a5)
800026d4:	018746b3          	xor	a3,a4,s8
800026d8:	00c70463          	beq	a4,a2,800026e0 <core_bench_state+0xd4>
800026dc:	00d78023          	sb	a3,0(a5)
800026e0:	016787b3          	add	a5,a5,s6
800026e4:	ff97e6e3          	bltu	a5,s9,800026d0 <core_bench_state+0xc4>
800026e8:	00044783          	lbu	a5,0(s0)
800026ec:	00c10a93          	addi	s5,sp,12
800026f0:	02078863          	beqz	a5,80002720 <core_bench_state+0x114>
800026f4:	03010593          	addi	a1,sp,48
800026f8:	000a8513          	mv	a0,s5
800026fc:	c1dff0ef          	jal	80002318 <core_state_transition>
80002700:	00251713          	slli	a4,a0,0x2
80002704:	00e98733          	add	a4,s3,a4
80002708:	00c12683          	lw	a3,12(sp)
8000270c:	00072783          	lw	a5,0(a4)
80002710:	0006c683          	lbu	a3,0(a3)
80002714:	00178793          	addi	a5,a5,1
80002718:	00f72023          	sw	a5,0(a4)
8000271c:	fc069ce3          	bnez	a3,800026f4 <core_bench_state+0xe8>
80002720:	02c00693          	li	a3,44
80002724:	01947e63          	bgeu	s0,s9,80002740 <core_bench_state+0x134>
80002728:	00044783          	lbu	a5,0(s0)
8000272c:	0177c733          	xor	a4,a5,s7
80002730:	00d78463          	beq	a5,a3,80002738 <core_bench_state+0x12c>
80002734:	00e40023          	sb	a4,0(s0)
80002738:	01640433          	add	s0,s0,s6
8000273c:	ff9466e3          	bltu	s0,s9,80002728 <core_bench_state+0x11c>
80002740:	02098993          	addi	s3,s3,32
80002744:	00092503          	lw	a0,0(s2)
80002748:	00048593          	mv	a1,s1
8000274c:	00490913          	addi	s2,s2,4
80002750:	414000ef          	jal	80002b64 <crcu32>
80002754:	00050593          	mv	a1,a0
80002758:	000a2503          	lw	a0,0(s4)
8000275c:	004a0a13          	addi	s4,s4,4
80002760:	404000ef          	jal	80002b64 <crcu32>
80002764:	00050493          	mv	s1,a0
80002768:	fd299ee3          	bne	s3,s2,80002744 <core_bench_state+0x138>
8000276c:	07c12083          	lw	ra,124(sp)
80002770:	07812403          	lw	s0,120(sp)
80002774:	07412483          	lw	s1,116(sp)
80002778:	07012903          	lw	s2,112(sp)
8000277c:	06c12983          	lw	s3,108(sp)
80002780:	06812a03          	lw	s4,104(sp)
80002784:	06412a83          	lw	s5,100(sp)
80002788:	06012b03          	lw	s6,96(sp)
8000278c:	05c12b83          	lw	s7,92(sp)
80002790:	05812c03          	lw	s8,88(sp)
80002794:	05412c83          	lw	s9,84(sp)
80002798:	08010113          	addi	sp,sp,128
8000279c:	00008067          	ret
800027a0:	01940cb3          	add	s9,s0,s9
800027a4:	f39462e3          	bltu	s0,s9,800026c8 <core_bench_state+0xbc>
800027a8:	f99ff06f          	j	80002740 <core_bench_state+0x134>

800027ac <get_seed_32>:
800027ac:	00500793          	li	a5,5
800027b0:	04a7ea63          	bltu	a5,a0,80002804 <get_seed_32+0x58>
800027b4:	800057b7          	lui	a5,0x80005
800027b8:	2e878793          	addi	a5,a5,744 # 800052e8 <errpat+0x10>
800027bc:	00251513          	slli	a0,a0,0x2
800027c0:	00f50533          	add	a0,a0,a5
800027c4:	00052783          	lw	a5,0(a0)
800027c8:	00078067          	jr	a5
800027cc:	800057b7          	lui	a5,0x80005
800027d0:	7cc7a503          	lw	a0,1996(a5) # 800057cc <seed5_volatile>
800027d4:	00008067          	ret
800027d8:	800057b7          	lui	a5,0x80005
800027dc:	7d47a503          	lw	a0,2004(a5) # 800057d4 <seed1_volatile>
800027e0:	00008067          	ret
800027e4:	800057b7          	lui	a5,0x80005
800027e8:	7d07a503          	lw	a0,2000(a5) # 800057d0 <seed2_volatile>
800027ec:	00008067          	ret
800027f0:	8081a503          	lw	a0,-2040(gp) # 800057c0 <seed3_volatile>
800027f4:	00008067          	ret
800027f8:	800057b7          	lui	a5,0x80005
800027fc:	7bc7a503          	lw	a0,1980(a5) # 800057bc <seed4_volatile>
80002800:	00008067          	ret
80002804:	00000513          	li	a0,0
80002808:	00008067          	ret

8000280c <crcu8>:
8000280c:	0ff5f713          	zext.b	a4,a1
80002810:	00871713          	slli	a4,a4,0x8
80002814:	0085d593          	srli	a1,a1,0x8
80002818:	000017b7          	lui	a5,0x1
8000281c:	fffff337          	lui	t1,0xfffff
80002820:	00b76733          	or	a4,a4,a1
80002824:	f0f78793          	addi	a5,a5,-241 # f0f <_tbss_end+0xecb>
80002828:	0f030313          	addi	t1,t1,240 # fffff0f0 <_end+0x7fff9130>
8000282c:	00f77633          	and	a2,a4,a5
80002830:	00677733          	and	a4,a4,t1
80002834:	00475713          	srli	a4,a4,0x4
80002838:	00461613          	slli	a2,a2,0x4
8000283c:	00e66633          	or	a2,a2,a4
80002840:	ffffd8b7          	lui	a7,0xffffd
80002844:	00003737          	lui	a4,0x3
80002848:	33370713          	addi	a4,a4,819 # 3333 <_tbss_end+0x32ef>
8000284c:	ccc88893          	addi	a7,a7,-820 # ffffcccc <_end+0x7fff6d0c>
80002850:	00f57693          	andi	a3,a0,15
80002854:	00e675b3          	and	a1,a2,a4
80002858:	00455513          	srli	a0,a0,0x4
8000285c:	01167633          	and	a2,a2,a7
80002860:	00469693          	slli	a3,a3,0x4
80002864:	00a6e6b3          	or	a3,a3,a0
80002868:	00265613          	srli	a2,a2,0x2
8000286c:	00259593          	slli	a1,a1,0x2
80002870:	00c5e5b3          	or	a1,a1,a2
80002874:	00005537          	lui	a0,0x5
80002878:	0336f613          	andi	a2,a3,51
8000287c:	ffffb837          	lui	a6,0xffffb
80002880:	0cc6f693          	andi	a3,a3,204
80002884:	aaa80813          	addi	a6,a6,-1366 # ffffaaaa <_end+0x7fff4aea>
80002888:	0026de13          	srli	t3,a3,0x2
8000288c:	55550513          	addi	a0,a0,1365 # 5555 <_tbss_end+0x5511>
80002890:	00261613          	slli	a2,a2,0x2
80002894:	00a5f6b3          	and	a3,a1,a0
80002898:	01c66633          	or	a2,a2,t3
8000289c:	0105f5b3          	and	a1,a1,a6
800028a0:	0015d593          	srli	a1,a1,0x1
800028a4:	00169693          	slli	a3,a3,0x1
800028a8:	05567e93          	andi	t4,a2,85
800028ac:	0aa67613          	andi	a2,a2,170
800028b0:	00b6ee33          	or	t3,a3,a1
800028b4:	001e9e93          	slli	t4,t4,0x1
800028b8:	00165613          	srli	a2,a2,0x1
800028bc:	008e5e13          	srli	t3,t3,0x8
800028c0:	00cee633          	or	a2,t4,a2
800028c4:	00ce4633          	xor	a2,t3,a2
800028c8:	80005e37          	lui	t3,0x80005
800028cc:	300e0e13          	addi	t3,t3,768 # 80005300 <errpat+0x28>
800028d0:	00161613          	slli	a2,a2,0x1
800028d4:	01c60633          	add	a2,a2,t3
800028d8:	00065603          	lhu	a2,0(a2)
800028dc:	00b6e6b3          	or	a3,a3,a1
800028e0:	00869693          	slli	a3,a3,0x8
800028e4:	00d646b3          	xor	a3,a2,a3
800028e8:	01069593          	slli	a1,a3,0x10
800028ec:	0ff67613          	zext.b	a2,a2
800028f0:	0185d693          	srli	a3,a1,0x18
800028f4:	00861613          	slli	a2,a2,0x8
800028f8:	00d66633          	or	a2,a2,a3
800028fc:	00f676b3          	and	a3,a2,a5
80002900:	00667633          	and	a2,a2,t1
80002904:	00465613          	srli	a2,a2,0x4
80002908:	00469693          	slli	a3,a3,0x4
8000290c:	00c6e6b3          	or	a3,a3,a2
80002910:	00e6f7b3          	and	a5,a3,a4
80002914:	0116f6b3          	and	a3,a3,a7
80002918:	0026d693          	srli	a3,a3,0x2
8000291c:	00279793          	slli	a5,a5,0x2
80002920:	00d7e7b3          	or	a5,a5,a3
80002924:	00a7f533          	and	a0,a5,a0
80002928:	0107f7b3          	and	a5,a5,a6
8000292c:	0017d793          	srli	a5,a5,0x1
80002930:	00151513          	slli	a0,a0,0x1
80002934:	00f56533          	or	a0,a0,a5
80002938:	00008067          	ret

8000293c <crcu16>:
8000293c:	0ff5f793          	zext.b	a5,a1
80002940:	00879793          	slli	a5,a5,0x8
80002944:	0085d593          	srli	a1,a1,0x8
80002948:	00001737          	lui	a4,0x1
8000294c:	fffff337          	lui	t1,0xfffff
80002950:	0f030313          	addi	t1,t1,240 # fffff0f0 <_end+0x7fff9130>
80002954:	f0f70713          	addi	a4,a4,-241 # f0f <_tbss_end+0xecb>
80002958:	00b7e7b3          	or	a5,a5,a1
8000295c:	00e7f5b3          	and	a1,a5,a4
80002960:	0067f7b3          	and	a5,a5,t1
80002964:	0047d793          	srli	a5,a5,0x4
80002968:	00459593          	slli	a1,a1,0x4
8000296c:	00f5e5b3          	or	a1,a1,a5
80002970:	ffffd8b7          	lui	a7,0xffffd
80002974:	000037b7          	lui	a5,0x3
80002978:	ccc88893          	addi	a7,a7,-820 # ffffcccc <_end+0x7fff6d0c>
8000297c:	33378793          	addi	a5,a5,819 # 3333 <_tbss_end+0x32ef>
80002980:	00f57693          	andi	a3,a0,15
80002984:	0f057813          	andi	a6,a0,240
80002988:	00f5f633          	and	a2,a1,a5
8000298c:	00485813          	srli	a6,a6,0x4
80002990:	0115f5b3          	and	a1,a1,a7
80002994:	00469693          	slli	a3,a3,0x4
80002998:	0106e6b3          	or	a3,a3,a6
8000299c:	0025d593          	srli	a1,a1,0x2
800029a0:	00261613          	slli	a2,a2,0x2
800029a4:	00b66633          	or	a2,a2,a1
800029a8:	0336fe13          	andi	t3,a3,51
800029ac:	000055b7          	lui	a1,0x5
800029b0:	0cc6f693          	andi	a3,a3,204
800029b4:	ffffb837          	lui	a6,0xffffb
800029b8:	55558593          	addi	a1,a1,1365 # 5555 <_tbss_end+0x5511>
800029bc:	aaa80813          	addi	a6,a6,-1366 # ffffaaaa <_end+0x7fff4aea>
800029c0:	0026de93          	srli	t4,a3,0x2
800029c4:	002e1e13          	slli	t3,t3,0x2
800029c8:	00b676b3          	and	a3,a2,a1
800029cc:	01de6e33          	or	t3,t3,t4
800029d0:	01067633          	and	a2,a2,a6
800029d4:	00169693          	slli	a3,a3,0x1
800029d8:	00165613          	srli	a2,a2,0x1
800029dc:	055e7f13          	andi	t5,t3,85
800029e0:	0aae7e13          	andi	t3,t3,170
800029e4:	00c6eeb3          	or	t4,a3,a2
800029e8:	001f1f13          	slli	t5,t5,0x1
800029ec:	001e5e13          	srli	t3,t3,0x1
800029f0:	01cf6e33          	or	t3,t5,t3
800029f4:	008ede93          	srli	t4,t4,0x8
800029f8:	01ceceb3          	xor	t4,t4,t3
800029fc:	80005e37          	lui	t3,0x80005
80002a00:	300e0e13          	addi	t3,t3,768 # 80005300 <errpat+0x28>
80002a04:	00c6e633          	or	a2,a3,a2
80002a08:	001e9693          	slli	a3,t4,0x1
80002a0c:	01c686b3          	add	a3,a3,t3
80002a10:	0006d683          	lhu	a3,0(a3)
80002a14:	00861613          	slli	a2,a2,0x8
80002a18:	00855513          	srli	a0,a0,0x8
80002a1c:	00c6c633          	xor	a2,a3,a2
80002a20:	01061e93          	slli	t4,a2,0x10
80002a24:	0ff6f693          	zext.b	a3,a3
80002a28:	018ed613          	srli	a2,t4,0x18
80002a2c:	00869693          	slli	a3,a3,0x8
80002a30:	00c6e6b3          	or	a3,a3,a2
80002a34:	00e6f633          	and	a2,a3,a4
80002a38:	0066f6b3          	and	a3,a3,t1
80002a3c:	0046d693          	srli	a3,a3,0x4
80002a40:	00461613          	slli	a2,a2,0x4
80002a44:	00d66633          	or	a2,a2,a3
80002a48:	00f676b3          	and	a3,a2,a5
80002a4c:	01167633          	and	a2,a2,a7
80002a50:	00265613          	srli	a2,a2,0x2
80002a54:	00269693          	slli	a3,a3,0x2
80002a58:	00c6e6b3          	or	a3,a3,a2
80002a5c:	00b6f633          	and	a2,a3,a1
80002a60:	0106f6b3          	and	a3,a3,a6
80002a64:	00161613          	slli	a2,a2,0x1
80002a68:	0016d693          	srli	a3,a3,0x1
80002a6c:	00d666b3          	or	a3,a2,a3
80002a70:	0ff6f613          	zext.b	a2,a3
80002a74:	00861613          	slli	a2,a2,0x8
80002a78:	0086d693          	srli	a3,a3,0x8
80002a7c:	00d66633          	or	a2,a2,a3
80002a80:	00e676b3          	and	a3,a2,a4
80002a84:	00667eb3          	and	t4,a2,t1
80002a88:	004ede93          	srli	t4,t4,0x4
80002a8c:	00f57613          	andi	a2,a0,15
80002a90:	00469693          	slli	a3,a3,0x4
80002a94:	01d6e6b3          	or	a3,a3,t4
80002a98:	00455513          	srli	a0,a0,0x4
80002a9c:	00461613          	slli	a2,a2,0x4
80002aa0:	00a66633          	or	a2,a2,a0
80002aa4:	0116feb3          	and	t4,a3,a7
80002aa8:	00f6f533          	and	a0,a3,a5
80002aac:	002ede93          	srli	t4,t4,0x2
80002ab0:	03367693          	andi	a3,a2,51
80002ab4:	00251513          	slli	a0,a0,0x2
80002ab8:	0cc67613          	andi	a2,a2,204
80002abc:	01d56533          	or	a0,a0,t4
80002ac0:	00265613          	srli	a2,a2,0x2
80002ac4:	00269693          	slli	a3,a3,0x2
80002ac8:	00c6e6b3          	or	a3,a3,a2
80002acc:	00b57633          	and	a2,a0,a1
80002ad0:	01057533          	and	a0,a0,a6
80002ad4:	0556ff13          	andi	t5,a3,85
80002ad8:	00161613          	slli	a2,a2,0x1
80002adc:	00155513          	srli	a0,a0,0x1
80002ae0:	0aa6f693          	andi	a3,a3,170
80002ae4:	00a66eb3          	or	t4,a2,a0
80002ae8:	0016d693          	srli	a3,a3,0x1
80002aec:	001f1f13          	slli	t5,t5,0x1
80002af0:	00df6f33          	or	t5,t5,a3
80002af4:	008ed693          	srli	a3,t4,0x8
80002af8:	01e6c6b3          	xor	a3,a3,t5
80002afc:	00169693          	slli	a3,a3,0x1
80002b00:	01c686b3          	add	a3,a3,t3
80002b04:	0006d683          	lhu	a3,0(a3)
80002b08:	008e9613          	slli	a2,t4,0x8
80002b0c:	00c6c633          	xor	a2,a3,a2
80002b10:	01061513          	slli	a0,a2,0x10
80002b14:	0ff6f693          	zext.b	a3,a3
80002b18:	01855613          	srli	a2,a0,0x18
80002b1c:	00869693          	slli	a3,a3,0x8
80002b20:	00c6e6b3          	or	a3,a3,a2
80002b24:	00e6f733          	and	a4,a3,a4
80002b28:	0066f6b3          	and	a3,a3,t1
80002b2c:	0046d693          	srli	a3,a3,0x4
80002b30:	00471713          	slli	a4,a4,0x4
80002b34:	00d76733          	or	a4,a4,a3
80002b38:	00f777b3          	and	a5,a4,a5
80002b3c:	01177733          	and	a4,a4,a7
80002b40:	00275713          	srli	a4,a4,0x2
80002b44:	00279793          	slli	a5,a5,0x2
80002b48:	00e7e7b3          	or	a5,a5,a4
80002b4c:	00b7f533          	and	a0,a5,a1
80002b50:	0107f7b3          	and	a5,a5,a6
80002b54:	0017d793          	srli	a5,a5,0x1
80002b58:	00151513          	slli	a0,a0,0x1
80002b5c:	00f56533          	or	a0,a0,a5
80002b60:	00008067          	ret

80002b64 <crcu32>:
80002b64:	0ff5f793          	zext.b	a5,a1
80002b68:	00879793          	slli	a5,a5,0x8
80002b6c:	0085d593          	srli	a1,a1,0x8
80002b70:	00001737          	lui	a4,0x1
80002b74:	fffff8b7          	lui	a7,0xfffff
80002b78:	0f088893          	addi	a7,a7,240 # fffff0f0 <_end+0x7fff9130>
80002b7c:	f0f70713          	addi	a4,a4,-241 # f0f <_tbss_end+0xecb>
80002b80:	00b7e7b3          	or	a5,a5,a1
80002b84:	00e7f6b3          	and	a3,a5,a4
80002b88:	0117f7b3          	and	a5,a5,a7
80002b8c:	0047d793          	srli	a5,a5,0x4
80002b90:	00469693          	slli	a3,a3,0x4
80002b94:	00f6e6b3          	or	a3,a3,a5
80002b98:	ffffd837          	lui	a6,0xffffd
80002b9c:	000037b7          	lui	a5,0x3
80002ba0:	ccc80813          	addi	a6,a6,-820 # ffffcccc <_end+0x7fff6d0c>
80002ba4:	33378793          	addi	a5,a5,819 # 3333 <_tbss_end+0x32ef>
80002ba8:	00f57613          	andi	a2,a0,15
80002bac:	0f057593          	andi	a1,a0,240
80002bb0:	00f6f333          	and	t1,a3,a5
80002bb4:	0045d593          	srli	a1,a1,0x4
80002bb8:	0106f6b3          	and	a3,a3,a6
80002bbc:	00461613          	slli	a2,a2,0x4
80002bc0:	00b66633          	or	a2,a2,a1
80002bc4:	0026d693          	srli	a3,a3,0x2
80002bc8:	00231313          	slli	t1,t1,0x2
80002bcc:	00d36333          	or	t1,t1,a3
80002bd0:	03367e13          	andi	t3,a2,51
80002bd4:	000056b7          	lui	a3,0x5
80002bd8:	0cc67613          	andi	a2,a2,204
80002bdc:	ffffb5b7          	lui	a1,0xffffb
80002be0:	55568693          	addi	a3,a3,1365 # 5555 <_tbss_end+0x5511>
80002be4:	aaa58593          	addi	a1,a1,-1366 # ffffaaaa <_end+0x7fff4aea>
80002be8:	00265e93          	srli	t4,a2,0x2
80002bec:	002e1e13          	slli	t3,t3,0x2
80002bf0:	00d37633          	and	a2,t1,a3
80002bf4:	01de6e33          	or	t3,t3,t4
80002bf8:	00b37333          	and	t1,t1,a1
80002bfc:	00161613          	slli	a2,a2,0x1
80002c00:	00135313          	srli	t1,t1,0x1
80002c04:	055e7f13          	andi	t5,t3,85
80002c08:	0aae7e13          	andi	t3,t3,170
80002c0c:	00666eb3          	or	t4,a2,t1
80002c10:	001f1f13          	slli	t5,t5,0x1
80002c14:	001e5e13          	srli	t3,t3,0x1
80002c18:	01cf6e33          	or	t3,t5,t3
80002c1c:	008ede93          	srli	t4,t4,0x8
80002c20:	01ceceb3          	xor	t4,t4,t3
80002c24:	00666e33          	or	t3,a2,t1
80002c28:	80005337          	lui	t1,0x80005
80002c2c:	30030313          	addi	t1,t1,768 # 80005300 <errpat+0x28>
80002c30:	001e9613          	slli	a2,t4,0x1
80002c34:	00660633          	add	a2,a2,t1
80002c38:	00065603          	lhu	a2,0(a2)
80002c3c:	008e1e13          	slli	t3,t3,0x8
80002c40:	00855f13          	srli	t5,a0,0x8
80002c44:	01c64e33          	xor	t3,a2,t3
80002c48:	010e1e93          	slli	t4,t3,0x10
80002c4c:	0ff67613          	zext.b	a2,a2
80002c50:	018ede13          	srli	t3,t4,0x18
80002c54:	00861613          	slli	a2,a2,0x8
80002c58:	01c66633          	or	a2,a2,t3
80002c5c:	00e67e33          	and	t3,a2,a4
80002c60:	01167633          	and	a2,a2,a7
80002c64:	00465613          	srli	a2,a2,0x4
80002c68:	004e1e13          	slli	t3,t3,0x4
80002c6c:	00ce6e33          	or	t3,t3,a2
80002c70:	00fe7633          	and	a2,t3,a5
80002c74:	010e7e33          	and	t3,t3,a6
80002c78:	002e5e13          	srli	t3,t3,0x2
80002c7c:	00261613          	slli	a2,a2,0x2
80002c80:	01c66633          	or	a2,a2,t3
80002c84:	00d67e33          	and	t3,a2,a3
80002c88:	00b67633          	and	a2,a2,a1
80002c8c:	00165613          	srli	a2,a2,0x1
80002c90:	001e1e13          	slli	t3,t3,0x1
80002c94:	00ce6e33          	or	t3,t3,a2
80002c98:	0ffe7613          	zext.b	a2,t3
80002c9c:	00861613          	slli	a2,a2,0x8
80002ca0:	008e5e13          	srli	t3,t3,0x8
80002ca4:	01c66633          	or	a2,a2,t3
80002ca8:	00e67eb3          	and	t4,a2,a4
80002cac:	01167633          	and	a2,a2,a7
80002cb0:	00465613          	srli	a2,a2,0x4
80002cb4:	004e9e93          	slli	t4,t4,0x4
80002cb8:	00ceeeb3          	or	t4,t4,a2
80002cbc:	00ff7613          	andi	a2,t5,15
80002cc0:	0f0f7f13          	andi	t5,t5,240
80002cc4:	00fefe33          	and	t3,t4,a5
80002cc8:	004f5f13          	srli	t5,t5,0x4
80002ccc:	010efeb3          	and	t4,t4,a6
80002cd0:	00461613          	slli	a2,a2,0x4
80002cd4:	01e66633          	or	a2,a2,t5
80002cd8:	002ede93          	srli	t4,t4,0x2
80002cdc:	002e1e13          	slli	t3,t3,0x2
80002ce0:	01de6e33          	or	t3,t3,t4
80002ce4:	03367e93          	andi	t4,a2,51
80002ce8:	0cc67613          	andi	a2,a2,204
80002cec:	00265f13          	srli	t5,a2,0x2
80002cf0:	002e9e93          	slli	t4,t4,0x2
80002cf4:	00de7633          	and	a2,t3,a3
80002cf8:	01eeeeb3          	or	t4,t4,t5
80002cfc:	00be7e33          	and	t3,t3,a1
80002d00:	00161613          	slli	a2,a2,0x1
80002d04:	001e5e13          	srli	t3,t3,0x1
80002d08:	055eff93          	andi	t6,t4,85
80002d0c:	0aaefe93          	andi	t4,t4,170
80002d10:	01c66f33          	or	t5,a2,t3
80002d14:	001f9f93          	slli	t6,t6,0x1
80002d18:	001ede93          	srli	t4,t4,0x1
80002d1c:	008f5f13          	srli	t5,t5,0x8
80002d20:	01dfeeb3          	or	t4,t6,t4
80002d24:	01df4eb3          	xor	t4,t5,t4
80002d28:	01c66e33          	or	t3,a2,t3
80002d2c:	001e9613          	slli	a2,t4,0x1
80002d30:	00660633          	add	a2,a2,t1
80002d34:	00065603          	lhu	a2,0(a2)
80002d38:	008e1e13          	slli	t3,t3,0x8
80002d3c:	01055e93          	srli	t4,a0,0x10
80002d40:	01c64e33          	xor	t3,a2,t3
80002d44:	010e1f13          	slli	t5,t3,0x10
80002d48:	0ff67613          	zext.b	a2,a2
80002d4c:	018f5e13          	srli	t3,t5,0x18
80002d50:	00861613          	slli	a2,a2,0x8
80002d54:	01c66633          	or	a2,a2,t3
80002d58:	00e67e33          	and	t3,a2,a4
80002d5c:	01167633          	and	a2,a2,a7
80002d60:	00465613          	srli	a2,a2,0x4
80002d64:	004e1e13          	slli	t3,t3,0x4
80002d68:	00ce6e33          	or	t3,t3,a2
80002d6c:	00fe7633          	and	a2,t3,a5
80002d70:	010e7e33          	and	t3,t3,a6
80002d74:	002e5e13          	srli	t3,t3,0x2
80002d78:	00261613          	slli	a2,a2,0x2
80002d7c:	01c66633          	or	a2,a2,t3
80002d80:	00d67e33          	and	t3,a2,a3
80002d84:	00b67633          	and	a2,a2,a1
80002d88:	001e1e13          	slli	t3,t3,0x1
80002d8c:	00165613          	srli	a2,a2,0x1
80002d90:	00ce6633          	or	a2,t3,a2
80002d94:	0ff67e13          	zext.b	t3,a2
80002d98:	008e1e13          	slli	t3,t3,0x8
80002d9c:	00865613          	srli	a2,a2,0x8
80002da0:	00ce6e33          	or	t3,t3,a2
80002da4:	00ee7633          	and	a2,t3,a4
80002da8:	011e7e33          	and	t3,t3,a7
80002dac:	004e5e13          	srli	t3,t3,0x4
80002db0:	00461613          	slli	a2,a2,0x4
80002db4:	01c66633          	or	a2,a2,t3
80002db8:	00fefe13          	andi	t3,t4,15
80002dbc:	0f0efe93          	andi	t4,t4,240
80002dc0:	004edf13          	srli	t5,t4,0x4
80002dc4:	004e1e13          	slli	t3,t3,0x4
80002dc8:	00f67eb3          	and	t4,a2,a5
80002dcc:	01067633          	and	a2,a2,a6
80002dd0:	01ee6e33          	or	t3,t3,t5
80002dd4:	00265613          	srli	a2,a2,0x2
80002dd8:	002e9e93          	slli	t4,t4,0x2
80002ddc:	00ceeeb3          	or	t4,t4,a2
80002de0:	033e7613          	andi	a2,t3,51
80002de4:	0cce7e13          	andi	t3,t3,204
80002de8:	002e5f13          	srli	t5,t3,0x2
80002dec:	00261613          	slli	a2,a2,0x2
80002df0:	00defe33          	and	t3,t4,a3
80002df4:	01e66633          	or	a2,a2,t5
80002df8:	00befeb3          	and	t4,t4,a1
80002dfc:	001ede93          	srli	t4,t4,0x1
80002e00:	001e1e13          	slli	t3,t3,0x1
80002e04:	05567f93          	andi	t6,a2,85
80002e08:	0aa67613          	andi	a2,a2,170
80002e0c:	01de6f33          	or	t5,t3,t4
80002e10:	001f9f93          	slli	t6,t6,0x1
80002e14:	00165613          	srli	a2,a2,0x1
80002e18:	008f5f13          	srli	t5,t5,0x8
80002e1c:	00cfe633          	or	a2,t6,a2
80002e20:	00cf4633          	xor	a2,t5,a2
80002e24:	00161613          	slli	a2,a2,0x1
80002e28:	00660633          	add	a2,a2,t1
80002e2c:	00065603          	lhu	a2,0(a2)
80002e30:	01de6e33          	or	t3,t3,t4
80002e34:	008e1e13          	slli	t3,t3,0x8
80002e38:	01c64e33          	xor	t3,a2,t3
80002e3c:	010e1e93          	slli	t4,t3,0x10
80002e40:	0ff67613          	zext.b	a2,a2
80002e44:	018ede13          	srli	t3,t4,0x18
80002e48:	00861613          	slli	a2,a2,0x8
80002e4c:	01c66633          	or	a2,a2,t3
80002e50:	00e67e33          	and	t3,a2,a4
80002e54:	01167633          	and	a2,a2,a7
80002e58:	00465613          	srli	a2,a2,0x4
80002e5c:	004e1e13          	slli	t3,t3,0x4
80002e60:	00ce6e33          	or	t3,t3,a2
80002e64:	00fe7633          	and	a2,t3,a5
80002e68:	010e7e33          	and	t3,t3,a6
80002e6c:	002e5e13          	srli	t3,t3,0x2
80002e70:	00261613          	slli	a2,a2,0x2
80002e74:	01c66633          	or	a2,a2,t3
80002e78:	00d67e33          	and	t3,a2,a3
80002e7c:	00b67633          	and	a2,a2,a1
80002e80:	00165613          	srli	a2,a2,0x1
80002e84:	001e1e13          	slli	t3,t3,0x1
80002e88:	00ce6e33          	or	t3,t3,a2
80002e8c:	0ffe7613          	zext.b	a2,t3
80002e90:	00861613          	slli	a2,a2,0x8
80002e94:	008e5e13          	srli	t3,t3,0x8
80002e98:	01c66633          	or	a2,a2,t3
80002e9c:	00e67eb3          	and	t4,a2,a4
80002ea0:	01167e33          	and	t3,a2,a7
80002ea4:	01855513          	srli	a0,a0,0x18
80002ea8:	00f57613          	andi	a2,a0,15
80002eac:	004e5e13          	srli	t3,t3,0x4
80002eb0:	004e9e93          	slli	t4,t4,0x4
80002eb4:	00461613          	slli	a2,a2,0x4
80002eb8:	01ceeeb3          	or	t4,t4,t3
80002ebc:	00455513          	srli	a0,a0,0x4
80002ec0:	00fefe33          	and	t3,t4,a5
80002ec4:	00a66533          	or	a0,a2,a0
80002ec8:	010efeb3          	and	t4,t4,a6
80002ecc:	03357613          	andi	a2,a0,51
80002ed0:	002ede93          	srli	t4,t4,0x2
80002ed4:	0cc57513          	andi	a0,a0,204
80002ed8:	002e1e13          	slli	t3,t3,0x2
80002edc:	01de6e33          	or	t3,t3,t4
80002ee0:	00255513          	srli	a0,a0,0x2
80002ee4:	00261613          	slli	a2,a2,0x2
80002ee8:	00a66633          	or	a2,a2,a0
80002eec:	00de7533          	and	a0,t3,a3
80002ef0:	00be7e33          	and	t3,t3,a1
80002ef4:	05567f13          	andi	t5,a2,85
80002ef8:	00151513          	slli	a0,a0,0x1
80002efc:	001e5e13          	srli	t3,t3,0x1
80002f00:	0aa67613          	andi	a2,a2,170
80002f04:	01c56eb3          	or	t4,a0,t3
80002f08:	00165613          	srli	a2,a2,0x1
80002f0c:	001f1f13          	slli	t5,t5,0x1
80002f10:	00cf6f33          	or	t5,t5,a2
80002f14:	008ed613          	srli	a2,t4,0x8
80002f18:	01e64633          	xor	a2,a2,t5
80002f1c:	00161613          	slli	a2,a2,0x1
80002f20:	00660633          	add	a2,a2,t1
80002f24:	00065603          	lhu	a2,0(a2)
80002f28:	008e9513          	slli	a0,t4,0x8
80002f2c:	00a64533          	xor	a0,a2,a0
80002f30:	01051313          	slli	t1,a0,0x10
80002f34:	0ff67613          	zext.b	a2,a2
80002f38:	01835513          	srli	a0,t1,0x18
80002f3c:	00861613          	slli	a2,a2,0x8
80002f40:	00a66633          	or	a2,a2,a0
80002f44:	00e67733          	and	a4,a2,a4
80002f48:	01167633          	and	a2,a2,a7
80002f4c:	00465613          	srli	a2,a2,0x4
80002f50:	00471713          	slli	a4,a4,0x4
80002f54:	00c76733          	or	a4,a4,a2
80002f58:	00f777b3          	and	a5,a4,a5
80002f5c:	01077733          	and	a4,a4,a6
80002f60:	00275713          	srli	a4,a4,0x2
80002f64:	00279793          	slli	a5,a5,0x2
80002f68:	00e7e7b3          	or	a5,a5,a4
80002f6c:	00d7f533          	and	a0,a5,a3
80002f70:	00b7f7b3          	and	a5,a5,a1
80002f74:	0017d793          	srli	a5,a5,0x1
80002f78:	00151513          	slli	a0,a0,0x1
80002f7c:	00f56533          	or	a0,a0,a5
80002f80:	00008067          	ret

80002f84 <crc16>:
80002f84:	0ff5f793          	zext.b	a5,a1
80002f88:	00879793          	slli	a5,a5,0x8
80002f8c:	0085d593          	srli	a1,a1,0x8
80002f90:	00001737          	lui	a4,0x1
80002f94:	fffff337          	lui	t1,0xfffff
80002f98:	0f030313          	addi	t1,t1,240 # fffff0f0 <_end+0x7fff9130>
80002f9c:	f0f70713          	addi	a4,a4,-241 # f0f <_tbss_end+0xecb>
80002fa0:	00b7e7b3          	or	a5,a5,a1
80002fa4:	00e7f5b3          	and	a1,a5,a4
80002fa8:	0067f7b3          	and	a5,a5,t1
80002fac:	0047d793          	srli	a5,a5,0x4
80002fb0:	00459593          	slli	a1,a1,0x4
80002fb4:	00f5e5b3          	or	a1,a1,a5
80002fb8:	ffffd8b7          	lui	a7,0xffffd
80002fbc:	000037b7          	lui	a5,0x3
80002fc0:	ccc88893          	addi	a7,a7,-820 # ffffcccc <_end+0x7fff6d0c>
80002fc4:	33378793          	addi	a5,a5,819 # 3333 <_tbss_end+0x32ef>
80002fc8:	00f57693          	andi	a3,a0,15
80002fcc:	0f057813          	andi	a6,a0,240
80002fd0:	00f5f633          	and	a2,a1,a5
80002fd4:	00485813          	srli	a6,a6,0x4
80002fd8:	0115f5b3          	and	a1,a1,a7
80002fdc:	00469693          	slli	a3,a3,0x4
80002fe0:	0106e6b3          	or	a3,a3,a6
80002fe4:	0025d593          	srli	a1,a1,0x2
80002fe8:	00261613          	slli	a2,a2,0x2
80002fec:	00b66633          	or	a2,a2,a1
80002ff0:	0336fe13          	andi	t3,a3,51
80002ff4:	000055b7          	lui	a1,0x5
80002ff8:	0cc6f693          	andi	a3,a3,204
80002ffc:	ffffb837          	lui	a6,0xffffb
80003000:	55558593          	addi	a1,a1,1365 # 5555 <_tbss_end+0x5511>
80003004:	aaa80813          	addi	a6,a6,-1366 # ffffaaaa <_end+0x7fff4aea>
80003008:	0026de93          	srli	t4,a3,0x2
8000300c:	002e1e13          	slli	t3,t3,0x2
80003010:	00b676b3          	and	a3,a2,a1
80003014:	01de6e33          	or	t3,t3,t4
80003018:	01067633          	and	a2,a2,a6
8000301c:	00169693          	slli	a3,a3,0x1
80003020:	00165613          	srli	a2,a2,0x1
80003024:	055e7f13          	andi	t5,t3,85
80003028:	0aae7e13          	andi	t3,t3,170
8000302c:	00c6eeb3          	or	t4,a3,a2
80003030:	001f1f13          	slli	t5,t5,0x1
80003034:	001e5e13          	srli	t3,t3,0x1
80003038:	01cf6e33          	or	t3,t5,t3
8000303c:	008ede93          	srli	t4,t4,0x8
80003040:	01ceceb3          	xor	t4,t4,t3
80003044:	80005e37          	lui	t3,0x80005
80003048:	300e0e13          	addi	t3,t3,768 # 80005300 <errpat+0x28>
8000304c:	00c6e633          	or	a2,a3,a2
80003050:	001e9693          	slli	a3,t4,0x1
80003054:	01c686b3          	add	a3,a3,t3
80003058:	0006d683          	lhu	a3,0(a3)
8000305c:	00861613          	slli	a2,a2,0x8
80003060:	00855513          	srli	a0,a0,0x8
80003064:	00c6c633          	xor	a2,a3,a2
80003068:	01061e93          	slli	t4,a2,0x10
8000306c:	0ff6f693          	zext.b	a3,a3
80003070:	018ed613          	srli	a2,t4,0x18
80003074:	00869693          	slli	a3,a3,0x8
80003078:	00c6e6b3          	or	a3,a3,a2
8000307c:	00e6f633          	and	a2,a3,a4
80003080:	0066f6b3          	and	a3,a3,t1
80003084:	0046d693          	srli	a3,a3,0x4
80003088:	00461613          	slli	a2,a2,0x4
8000308c:	00d66633          	or	a2,a2,a3
80003090:	00f676b3          	and	a3,a2,a5
80003094:	01167633          	and	a2,a2,a7
80003098:	00265613          	srli	a2,a2,0x2
8000309c:	00269693          	slli	a3,a3,0x2
800030a0:	00c6e6b3          	or	a3,a3,a2
800030a4:	00b6f633          	and	a2,a3,a1
800030a8:	0106f6b3          	and	a3,a3,a6
800030ac:	00161613          	slli	a2,a2,0x1
800030b0:	0016d693          	srli	a3,a3,0x1
800030b4:	00d666b3          	or	a3,a2,a3
800030b8:	0ff6f613          	zext.b	a2,a3
800030bc:	00861613          	slli	a2,a2,0x8
800030c0:	0086d693          	srli	a3,a3,0x8
800030c4:	00d66633          	or	a2,a2,a3
800030c8:	00e676b3          	and	a3,a2,a4
800030cc:	00667eb3          	and	t4,a2,t1
800030d0:	004ede93          	srli	t4,t4,0x4
800030d4:	00f57613          	andi	a2,a0,15
800030d8:	00469693          	slli	a3,a3,0x4
800030dc:	0f057513          	andi	a0,a0,240
800030e0:	01d6e6b3          	or	a3,a3,t4
800030e4:	00455513          	srli	a0,a0,0x4
800030e8:	00461613          	slli	a2,a2,0x4
800030ec:	00a66633          	or	a2,a2,a0
800030f0:	0116feb3          	and	t4,a3,a7
800030f4:	00f6f533          	and	a0,a3,a5
800030f8:	002ede93          	srli	t4,t4,0x2
800030fc:	03367693          	andi	a3,a2,51
80003100:	00251513          	slli	a0,a0,0x2
80003104:	0cc67613          	andi	a2,a2,204
80003108:	01d56533          	or	a0,a0,t4
8000310c:	00265613          	srli	a2,a2,0x2
80003110:	00269693          	slli	a3,a3,0x2
80003114:	00c6e6b3          	or	a3,a3,a2
80003118:	00b57633          	and	a2,a0,a1
8000311c:	01057533          	and	a0,a0,a6
80003120:	0556ff13          	andi	t5,a3,85
80003124:	00161613          	slli	a2,a2,0x1
80003128:	00155513          	srli	a0,a0,0x1
8000312c:	0aa6f693          	andi	a3,a3,170
80003130:	00a66eb3          	or	t4,a2,a0
80003134:	0016d693          	srli	a3,a3,0x1
80003138:	001f1f13          	slli	t5,t5,0x1
8000313c:	00df6f33          	or	t5,t5,a3
80003140:	008ed693          	srli	a3,t4,0x8
80003144:	01e6c6b3          	xor	a3,a3,t5
80003148:	00169693          	slli	a3,a3,0x1
8000314c:	01c686b3          	add	a3,a3,t3
80003150:	0006d683          	lhu	a3,0(a3)
80003154:	008e9613          	slli	a2,t4,0x8
80003158:	00c6c633          	xor	a2,a3,a2
8000315c:	01061513          	slli	a0,a2,0x10
80003160:	0ff6f693          	zext.b	a3,a3
80003164:	01855613          	srli	a2,a0,0x18
80003168:	00869693          	slli	a3,a3,0x8
8000316c:	00c6e6b3          	or	a3,a3,a2
80003170:	00e6f733          	and	a4,a3,a4
80003174:	0066f6b3          	and	a3,a3,t1
80003178:	0046d693          	srli	a3,a3,0x4
8000317c:	00471713          	slli	a4,a4,0x4
80003180:	00d76733          	or	a4,a4,a3
80003184:	00f777b3          	and	a5,a4,a5
80003188:	01177733          	and	a4,a4,a7
8000318c:	00275713          	srli	a4,a4,0x2
80003190:	00279793          	slli	a5,a5,0x2
80003194:	00e7e7b3          	or	a5,a5,a4
80003198:	00b7f533          	and	a0,a5,a1
8000319c:	0107f7b3          	and	a5,a5,a6
800031a0:	0017d793          	srli	a5,a5,0x1
800031a4:	00151513          	slli	a0,a0,0x1
800031a8:	00f56533          	or	a0,a0,a5
800031ac:	00008067          	ret

800031b0 <check_data_types>:
800031b0:	00000513          	li	a0,0
800031b4:	00008067          	ret

800031b8 <portable_malloc>:
800031b8:	00000513          	li	a0,0
800031bc:	00008067          	ret

800031c0 <portable_free>:
800031c0:	00008067          	ret

800031c4 <start_time>:
800031c4:	c0002773          	rdcycle	a4
800031c8:	800057b7          	lui	a5,0x80005
800031cc:	7ce7a423          	sw	a4,1992(a5) # 800057c8 <start_time_val>
800031d0:	00008067          	ret

800031d4 <stop_time>:
800031d4:	c0002773          	rdcycle	a4
800031d8:	800057b7          	lui	a5,0x80005
800031dc:	7ce7a223          	sw	a4,1988(a5) # 800057c4 <stop_time_val>
800031e0:	00008067          	ret

800031e4 <get_time>:
800031e4:	80005737          	lui	a4,0x80005
800031e8:	800057b7          	lui	a5,0x80005
800031ec:	7c472503          	lw	a0,1988(a4) # 800057c4 <stop_time_val>
800031f0:	7c87a783          	lw	a5,1992(a5) # 800057c8 <start_time_val>
800031f4:	40f50533          	sub	a0,a0,a5
800031f8:	00008067          	ret

800031fc <time_in_secs>:
800031fc:	000457b7          	lui	a5,0x45
80003200:	b8378793          	addi	a5,a5,-1149 # 44b83 <_tbss_end+0x44b3f>
80003204:	00955513          	srli	a0,a0,0x9
80003208:	02f53533          	mulhu	a0,a0,a5
8000320c:	00755513          	srli	a0,a0,0x7
80003210:	00008067          	ret

80003214 <portable_init>:
80003214:	00100793          	li	a5,1
80003218:	00f50023          	sb	a5,0(a0)
8000321c:	00008067          	ret

80003220 <portable_fini>:
80003220:	00050023          	sb	zero,0(a0)
80003224:	00008067          	ret

80003228 <vprintfmt>:
80003228:	800057b7          	lui	a5,0x80005
8000322c:	eb010113          	addi	sp,sp,-336
80003230:	50078793          	addi	a5,a5,1280 # 80005500 <errpat+0x228>
80003234:	14812423          	sw	s0,328(sp)
80003238:	14912223          	sw	s1,324(sp)
8000323c:	15212023          	sw	s2,320(sp)
80003240:	13512a23          	sw	s5,308(sp)
80003244:	14112623          	sw	ra,332(sp)
80003248:	13312e23          	sw	s3,316(sp)
8000324c:	13412c23          	sw	s4,312(sp)
80003250:	13712623          	sw	s7,300(sp)
80003254:	13812423          	sw	s8,296(sp)
80003258:	13912223          	sw	s9,292(sp)
8000325c:	13a12023          	sw	s10,288(sp)
80003260:	00050493          	mv	s1,a0
80003264:	00060413          	mv	s0,a2
80003268:	00d12423          	sw	a3,8(sp)
8000326c:	00058913          	mv	s2,a1
80003270:	00f12623          	sw	a5,12(sp)
80003274:	02500a93          	li	s5,37
80003278:	0140006f          	j	8000328c <vprintfmt+0x64>
8000327c:	06050063          	beqz	a0,800032dc <vprintfmt+0xb4>
80003280:	00090593          	mv	a1,s2
80003284:	00140413          	addi	s0,s0,1
80003288:	000480e7          	jalr	s1 # fffff000 <_end+0x7fff9040>
8000328c:	00044503          	lbu	a0,0(s0)
80003290:	ff5516e3          	bne	a0,s5,8000327c <vprintfmt+0x54>
80003294:	00144683          	lbu	a3,1(s0)
80003298:	00140a13          	addi	s4,s0,1
8000329c:	fff00993          	li	s3,-1
800032a0:	02000793          	li	a5,32
800032a4:	000a0713          	mv	a4,s4
800032a8:	00098c13          	mv	s8,s3
800032ac:	00f12223          	sw	a5,4(sp)
800032b0:	00000593          	li	a1,0
800032b4:	fdd68793          	addi	a5,a3,-35
800032b8:	0ff7f793          	zext.b	a5,a5
800032bc:	05500613          	li	a2,85
800032c0:	00170413          	addi	s0,a4,1
800032c4:	06f66663          	bltu	a2,a5,80003330 <vprintfmt+0x108>
800032c8:	00c12603          	lw	a2,12(sp)
800032cc:	00279793          	slli	a5,a5,0x2
800032d0:	00c787b3          	add	a5,a5,a2
800032d4:	0007a783          	lw	a5,0(a5)
800032d8:	00078067          	jr	a5
800032dc:	14c12083          	lw	ra,332(sp)
800032e0:	14812403          	lw	s0,328(sp)
800032e4:	14412483          	lw	s1,324(sp)
800032e8:	14012903          	lw	s2,320(sp)
800032ec:	13c12983          	lw	s3,316(sp)
800032f0:	13812a03          	lw	s4,312(sp)
800032f4:	13412a83          	lw	s5,308(sp)
800032f8:	12c12b83          	lw	s7,300(sp)
800032fc:	12812c03          	lw	s8,296(sp)
80003300:	12412c83          	lw	s9,292(sp)
80003304:	12012d03          	lw	s10,288(sp)
80003308:	15010113          	addi	sp,sp,336
8000330c:	00008067          	ret
80003310:	00d12223          	sw	a3,4(sp)
80003314:	00174683          	lbu	a3,1(a4)
80003318:	05500613          	li	a2,85
8000331c:	00040713          	mv	a4,s0
80003320:	fdd68793          	addi	a5,a3,-35
80003324:	0ff7f793          	zext.b	a5,a5
80003328:	00170413          	addi	s0,a4,1
8000332c:	f8f67ee3          	bgeu	a2,a5,800032c8 <vprintfmt+0xa0>
80003330:	00090593          	mv	a1,s2
80003334:	02500513          	li	a0,37
80003338:	000480e7          	jalr	s1
8000333c:	000a0413          	mv	s0,s4
80003340:	f4dff06f          	j	8000328c <vprintfmt+0x64>
80003344:	fd068993          	addi	s3,a3,-48
80003348:	00174683          	lbu	a3,1(a4)
8000334c:	00900513          	li	a0,9
80003350:	fd068793          	addi	a5,a3,-48
80003354:	38f56e63          	bltu	a0,a5,800036f0 <vprintfmt+0x4c8>
80003358:	00068613          	mv	a2,a3
8000335c:	00040713          	mv	a4,s0
80003360:	00299793          	slli	a5,s3,0x2
80003364:	013787b3          	add	a5,a5,s3
80003368:	00170713          	addi	a4,a4,1
8000336c:	00179793          	slli	a5,a5,0x1
80003370:	00c787b3          	add	a5,a5,a2
80003374:	00074603          	lbu	a2,0(a4)
80003378:	fd078993          	addi	s3,a5,-48
8000337c:	fd060793          	addi	a5,a2,-48
80003380:	00060693          	mv	a3,a2
80003384:	fcf57ee3          	bgeu	a0,a5,80003360 <vprintfmt+0x138>
80003388:	f20c56e3          	bgez	s8,800032b4 <vprintfmt+0x8c>
8000338c:	00098c13          	mv	s8,s3
80003390:	fff00993          	li	s3,-1
80003394:	f21ff06f          	j	800032b4 <vprintfmt+0x8c>
80003398:	13612823          	sw	s6,304(sp)
8000339c:	01000b93          	li	s7,16
800033a0:	00000d13          	li	s10,0
800033a4:	00100793          	li	a5,1
800033a8:	26b7c263          	blt	a5,a1,8000360c <vprintfmt+0x3e4>
800033ac:	00812783          	lw	a5,8(sp)
800033b0:	00000c93          	li	s9,0
800033b4:	0007a983          	lw	s3,0(a5)
800033b8:	00478793          	addi	a5,a5,4
800033bc:	00f12423          	sw	a5,8(sp)
800033c0:	000b8613          	mv	a2,s7
800033c4:	00000693          	li	a3,0
800033c8:	00098513          	mv	a0,s3
800033cc:	000c8593          	mv	a1,s9
800033d0:	561000ef          	jal	80004130 <__umoddi3>
800033d4:	00a12823          	sw	a0,16(sp)
800033d8:	259d0a63          	beq	s10,s9,8000362c <vprintfmt+0x404>
800033dc:	11b12e23          	sw	s11,284(sp)
800033e0:	00100b13          	li	s6,1
800033e4:	01410d93          	addi	s11,sp,20
800033e8:	00098513          	mv	a0,s3
800033ec:	000c8593          	mv	a1,s9
800033f0:	000b8613          	mv	a2,s7
800033f4:	00000693          	li	a3,0
800033f8:	175000ef          	jal	80003d6c <__udivdi3>
800033fc:	000b8613          	mv	a2,s7
80003400:	00000693          	li	a3,0
80003404:	00050993          	mv	s3,a0
80003408:	00058c93          	mv	s9,a1
8000340c:	525000ef          	jal	80004130 <__umoddi3>
80003410:	00ada023          	sw	a0,0(s11)
80003414:	000b0a13          	mv	s4,s6
80003418:	004d8d93          	addi	s11,s11,4
8000341c:	001b0b13          	addi	s6,s6,1
80003420:	fd9d14e3          	bne	s10,s9,800033e8 <vprintfmt+0x1c0>
80003424:	fd79f2e3          	bgeu	s3,s7,800033e8 <vprintfmt+0x1c0>
80003428:	11c12d83          	lw	s11,284(sp)
8000342c:	fffc0b93          	addi	s7,s8,-1
80003430:	fffb0993          	addi	s3,s6,-1
80003434:	018b5c63          	bge	s6,s8,8000344c <vprintfmt+0x224>
80003438:	00412503          	lw	a0,4(sp)
8000343c:	00090593          	mv	a1,s2
80003440:	fffb8b93          	addi	s7,s7,-1
80003444:	000480e7          	jalr	s1
80003448:	ff3b98e3          	bne	s7,s3,80003438 <vprintfmt+0x210>
8000344c:	002a1a13          	slli	s4,s4,0x2
80003450:	01010993          	addi	s3,sp,16
80003454:	013a0a33          	add	s4,s4,s3
80003458:	00900b13          	li	s6,9
8000345c:	0080006f          	j	80003464 <vprintfmt+0x23c>
80003460:	ffca0a13          	addi	s4,s4,-4
80003464:	000a2783          	lw	a5,0(s4)
80003468:	03000513          	li	a0,48
8000346c:	00fb7463          	bgeu	s6,a5,80003474 <vprintfmt+0x24c>
80003470:	05700513          	li	a0,87
80003474:	00a78533          	add	a0,a5,a0
80003478:	00090593          	mv	a1,s2
8000347c:	000480e7          	jalr	s1
80003480:	ff4990e3          	bne	s3,s4,80003460 <vprintfmt+0x238>
80003484:	13012b03          	lw	s6,304(sp)
80003488:	e05ff06f          	j	8000328c <vprintfmt+0x64>
8000348c:	00812783          	lw	a5,8(sp)
80003490:	01802733          	sgtz	a4,s8
80003494:	11b12e23          	sw	s11,284(sp)
80003498:	0007aa03          	lw	s4,0(a5)
8000349c:	00412783          	lw	a5,4(sp)
800034a0:	fd378793          	addi	a5,a5,-45
800034a4:	00f037b3          	snez	a5,a5
800034a8:	00f77733          	and	a4,a4,a5
800034ac:	00812783          	lw	a5,8(sp)
800034b0:	00478d93          	addi	s11,a5,4
800034b4:	1c0a0463          	beqz	s4,8000367c <vprintfmt+0x454>
800034b8:	1e071463          	bnez	a4,800036a0 <vprintfmt+0x478>
800034bc:	000a4503          	lbu	a0,0(s4)
800034c0:	02050a63          	beqz	a0,800034f4 <vprintfmt+0x2cc>
800034c4:	13612823          	sw	s6,304(sp)
800034c8:	fff00b13          	li	s6,-1
800034cc:	0009c663          	bltz	s3,800034d8 <vprintfmt+0x2b0>
800034d0:	fff98993          	addi	s3,s3,-1
800034d4:	01698e63          	beq	s3,s6,800034f0 <vprintfmt+0x2c8>
800034d8:	00090593          	mv	a1,s2
800034dc:	000480e7          	jalr	s1
800034e0:	001a4503          	lbu	a0,1(s4)
800034e4:	001a0a13          	addi	s4,s4,1
800034e8:	fffc0c13          	addi	s8,s8,-1
800034ec:	fe0510e3          	bnez	a0,800034cc <vprintfmt+0x2a4>
800034f0:	13012b03          	lw	s6,304(sp)
800034f4:	01805c63          	blez	s8,8000350c <vprintfmt+0x2e4>
800034f8:	00090593          	mv	a1,s2
800034fc:	02000513          	li	a0,32
80003500:	fffc0c13          	addi	s8,s8,-1
80003504:	000480e7          	jalr	s1
80003508:	fe0c18e3          	bnez	s8,800034f8 <vprintfmt+0x2d0>
8000350c:	01b12423          	sw	s11,8(sp)
80003510:	11c12d83          	lw	s11,284(sp)
80003514:	d79ff06f          	j	8000328c <vprintfmt+0x64>
80003518:	fffc4793          	not	a5,s8
8000351c:	41f7d793          	srai	a5,a5,0x1f
80003520:	00174683          	lbu	a3,1(a4)
80003524:	00fc7c33          	and	s8,s8,a5
80003528:	00040713          	mv	a4,s0
8000352c:	d89ff06f          	j	800032b4 <vprintfmt+0x8c>
80003530:	00174683          	lbu	a3,1(a4)
80003534:	00040713          	mv	a4,s0
80003538:	d7dff06f          	j	800032b4 <vprintfmt+0x8c>
8000353c:	00090593          	mv	a1,s2
80003540:	02500513          	li	a0,37
80003544:	000480e7          	jalr	s1
80003548:	d45ff06f          	j	8000328c <vprintfmt+0x64>
8000354c:	00812783          	lw	a5,8(sp)
80003550:	00174683          	lbu	a3,1(a4)
80003554:	00040713          	mv	a4,s0
80003558:	0007a983          	lw	s3,0(a5)
8000355c:	00478793          	addi	a5,a5,4
80003560:	00f12423          	sw	a5,8(sp)
80003564:	e25ff06f          	j	80003388 <vprintfmt+0x160>
80003568:	00812783          	lw	a5,8(sp)
8000356c:	00090593          	mv	a1,s2
80003570:	0007a503          	lw	a0,0(a5)
80003574:	000480e7          	jalr	s1
80003578:	00812783          	lw	a5,8(sp)
8000357c:	00478793          	addi	a5,a5,4
80003580:	00f12423          	sw	a5,8(sp)
80003584:	d09ff06f          	j	8000328c <vprintfmt+0x64>
80003588:	13612823          	sw	s6,304(sp)
8000358c:	00100793          	li	a5,1
80003590:	0ab7c663          	blt	a5,a1,8000363c <vprintfmt+0x414>
80003594:	00812783          	lw	a5,8(sp)
80003598:	0007a983          	lw	s3,0(a5)
8000359c:	00478793          	addi	a5,a5,4
800035a0:	00f12423          	sw	a5,8(sp)
800035a4:	41f9dc93          	srai	s9,s3,0x1f
800035a8:	020cd063          	bgez	s9,800035c8 <vprintfmt+0x3a0>
800035ac:	00090593          	mv	a1,s2
800035b0:	02d00513          	li	a0,45
800035b4:	000480e7          	jalr	s1
800035b8:	01303733          	snez	a4,s3
800035bc:	419007b3          	neg	a5,s9
800035c0:	40e78cb3          	sub	s9,a5,a4
800035c4:	413009b3          	neg	s3,s3
800035c8:	00a00b93          	li	s7,10
800035cc:	00000d13          	li	s10,0
800035d0:	df1ff06f          	j	800033c0 <vprintfmt+0x198>
800035d4:	00174683          	lbu	a3,1(a4)
800035d8:	00158593          	addi	a1,a1,1
800035dc:	00040713          	mv	a4,s0
800035e0:	cd5ff06f          	j	800032b4 <vprintfmt+0x8c>
800035e4:	00090593          	mv	a1,s2
800035e8:	03000513          	li	a0,48
800035ec:	13612823          	sw	s6,304(sp)
800035f0:	000480e7          	jalr	s1
800035f4:	00090593          	mv	a1,s2
800035f8:	07800513          	li	a0,120
800035fc:	000480e7          	jalr	s1
80003600:	01000b93          	li	s7,16
80003604:	00000d13          	li	s10,0
80003608:	da5ff06f          	j	800033ac <vprintfmt+0x184>
8000360c:	00812783          	lw	a5,8(sp)
80003610:	00778793          	addi	a5,a5,7
80003614:	ff87f793          	andi	a5,a5,-8
80003618:	00878713          	addi	a4,a5,8
8000361c:	0007a983          	lw	s3,0(a5)
80003620:	0047ac83          	lw	s9,4(a5)
80003624:	00e12423          	sw	a4,8(sp)
80003628:	d99ff06f          	j	800033c0 <vprintfmt+0x198>
8000362c:	db79f8e3          	bgeu	s3,s7,800033dc <vprintfmt+0x1b4>
80003630:	00000a13          	li	s4,0
80003634:	00100b13          	li	s6,1
80003638:	df5ff06f          	j	8000342c <vprintfmt+0x204>
8000363c:	00812783          	lw	a5,8(sp)
80003640:	00778793          	addi	a5,a5,7
80003644:	ff87f793          	andi	a5,a5,-8
80003648:	00878713          	addi	a4,a5,8
8000364c:	0007a983          	lw	s3,0(a5)
80003650:	0047ac83          	lw	s9,4(a5)
80003654:	00e12423          	sw	a4,8(sp)
80003658:	f51ff06f          	j	800035a8 <vprintfmt+0x380>
8000365c:	13612823          	sw	s6,304(sp)
80003660:	00a00b93          	li	s7,10
80003664:	00000d13          	li	s10,0
80003668:	d3dff06f          	j	800033a4 <vprintfmt+0x17c>
8000366c:	13612823          	sw	s6,304(sp)
80003670:	00800b93          	li	s7,8
80003674:	00000d13          	li	s10,0
80003678:	d2dff06f          	j	800033a4 <vprintfmt+0x17c>
8000367c:	00071e63          	bnez	a4,80003698 <vprintfmt+0x470>
80003680:	80005a37          	lui	s4,0x80005
80003684:	13612823          	sw	s6,304(sp)
80003688:	244a0a13          	addi	s4,s4,580 # 80005244 <main+0xcf8>
8000368c:	02800513          	li	a0,40
80003690:	fff00b13          	li	s6,-1
80003694:	e39ff06f          	j	800034cc <vprintfmt+0x2a4>
80003698:	80005a37          	lui	s4,0x80005
8000369c:	244a0a13          	addi	s4,s4,580 # 80005244 <main+0xcf8>
800036a0:	000a0793          	mv	a5,s4
800036a4:	013a06b3          	add	a3,s4,s3
800036a8:	00099863          	bnez	s3,800036b8 <vprintfmt+0x490>
800036ac:	0200006f          	j	800036cc <vprintfmt+0x4a4>
800036b0:	00178793          	addi	a5,a5,1
800036b4:	00d78663          	beq	a5,a3,800036c0 <vprintfmt+0x498>
800036b8:	0007c703          	lbu	a4,0(a5)
800036bc:	fe071ae3          	bnez	a4,800036b0 <vprintfmt+0x488>
800036c0:	414787b3          	sub	a5,a5,s4
800036c4:	40fc0c33          	sub	s8,s8,a5
800036c8:	01805c63          	blez	s8,800036e0 <vprintfmt+0x4b8>
800036cc:	00412503          	lw	a0,4(sp)
800036d0:	00090593          	mv	a1,s2
800036d4:	fffc0c13          	addi	s8,s8,-1
800036d8:	000480e7          	jalr	s1
800036dc:	fe0c18e3          	bnez	s8,800036cc <vprintfmt+0x4a4>
800036e0:	000a4503          	lbu	a0,0(s4)
800036e4:	e20504e3          	beqz	a0,8000350c <vprintfmt+0x2e4>
800036e8:	13612823          	sw	s6,304(sp)
800036ec:	dddff06f          	j	800034c8 <vprintfmt+0x2a0>
800036f0:	00040713          	mv	a4,s0
800036f4:	c95ff06f          	j	80003388 <vprintfmt+0x160>

800036f8 <sprintf_putch.0>:
800036f8:	0005a783          	lw	a5,0(a1)
800036fc:	00a78023          	sb	a0,0(a5)
80003700:	0005a783          	lw	a5,0(a1)
80003704:	00178793          	addi	a5,a5,1
80003708:	00f5a023          	sw	a5,0(a1)
8000370c:	00008067          	ret

80003710 <putchar>:
80003710:	04022703          	lw	a4,64(tp) # 40 <buflen.1>
80003714:	00020793          	mv	a5,tp
80003718:	f8010113          	addi	sp,sp,-128
8000371c:	00e787b3          	add	a5,a5,a4
80003720:	00170813          	addi	a6,a4,1
80003724:	00a78023          	sb	a0,0(a5)
80003728:	05022023          	sw	a6,64(tp) # 40 <buflen.1>
8000372c:	ff650513          	addi	a0,a0,-10
80003730:	03f10693          	addi	a3,sp,63
80003734:	fc06f693          	andi	a3,a3,-64
80003738:	00050c63          	beqz	a0,80003750 <putchar+0x40>
8000373c:	fc170713          	addi	a4,a4,-63
80003740:	00070863          	beqz	a4,80003750 <putchar+0x40>
80003744:	00000513          	li	a0,0
80003748:	08010113          	addi	sp,sp,128
8000374c:	00008067          	ret
80003750:	04000713          	li	a4,64
80003754:	00e6a023          	sw	a4,0(a3)
80003758:	00000793          	li	a5,0
8000375c:	00f6a223          	sw	a5,4(a3)
80003760:	00100e13          	li	t3,1
80003764:	01c6a423          	sw	t3,8(a3)
80003768:	00000e93          	li	t4,0
8000376c:	01d6a623          	sw	t4,12(a3)
80003770:	00020313          	mv	t1,tp
80003774:	0066a823          	sw	t1,16(a3)
80003778:	00000393          	li	t2,0
8000377c:	0076aa23          	sw	t2,20(a3)
80003780:	0106ac23          	sw	a6,24(a3)
80003784:	41f85793          	srai	a5,a6,0x1f
80003788:	00f6ae23          	sw	a5,28(a3)
8000378c:	0330000f          	fence	rw,rw
80003790:	80001637          	lui	a2,0x80001
80003794:	00d62023          	sw	a3,0(a2) # 80001000 <tohost>
80003798:	00000793          	li	a5,0
8000379c:	00f62223          	sw	a5,4(a2)
800037a0:	80001637          	lui	a2,0x80001
800037a4:	04062703          	lw	a4,64(a2) # 80001040 <fromhost>
800037a8:	04462783          	lw	a5,68(a2)
800037ac:	00f76733          	or	a4,a4,a5
800037b0:	fe070ae3          	beqz	a4,800037a4 <putchar+0x94>
800037b4:	00000793          	li	a5,0
800037b8:	04f62023          	sw	a5,64(a2)
800037bc:	00000813          	li	a6,0
800037c0:	05062223          	sw	a6,68(a2)
800037c4:	0330000f          	fence	rw,rw
800037c8:	04022023          	sw	zero,64(tp) # 40 <buflen.1>
800037cc:	0006a703          	lw	a4,0(a3)
800037d0:	00000513          	li	a0,0
800037d4:	0046a783          	lw	a5,4(a3)
800037d8:	08010113          	addi	sp,sp,128
800037dc:	00008067          	ret

800037e0 <setStats>:
800037e0:	b0002773          	csrr	a4,mcycle
800037e4:	800057b7          	lui	a5,0x80005
800037e8:	7e078793          	addi	a5,a5,2016 # 800057e0 <counters>
800037ec:	00050a63          	beqz	a0,80003800 <setStats+0x20>
800037f0:	00e7a023          	sw	a4,0(a5)
800037f4:	b0202773          	csrr	a4,minstret
800037f8:	00e7a223          	sw	a4,4(a5)
800037fc:	00008067          	ret
80003800:	0007a583          	lw	a1,0(a5)
80003804:	800056b7          	lui	a3,0x80005
80003808:	80005637          	lui	a2,0x80005
8000380c:	40b70733          	sub	a4,a4,a1
80003810:	7d868693          	addi	a3,a3,2008 # 800057d8 <counter_names>
80003814:	24c60613          	addi	a2,a2,588 # 8000524c <main+0xd00>
80003818:	00e7a023          	sw	a4,0(a5)
8000381c:	00c6a023          	sw	a2,0(a3)
80003820:	b0202773          	csrr	a4,minstret
80003824:	0047a583          	lw	a1,4(a5)
80003828:	80005637          	lui	a2,0x80005
8000382c:	25460613          	addi	a2,a2,596 # 80005254 <main+0xd08>
80003830:	40b70733          	sub	a4,a4,a1
80003834:	00c6a223          	sw	a2,4(a3)
80003838:	00e7a223          	sw	a4,4(a5)
8000383c:	00008067          	ret

80003840 <tohost_exit>:
80003840:	00151693          	slli	a3,a0,0x1
80003844:	0016e713          	ori	a4,a3,1
80003848:	800016b7          	lui	a3,0x80001
8000384c:	00000793          	li	a5,0
80003850:	00e6a023          	sw	a4,0(a3) # 80001000 <tohost>
80003854:	00f6a223          	sw	a5,4(a3)
80003858:	0000006f          	j	80003858 <tohost_exit+0x18>

8000385c <handle_trap>:
8000385c:	00001637          	lui	a2,0x1
80003860:	800017b7          	lui	a5,0x80001
80003864:	a7360613          	addi	a2,a2,-1421 # a73 <_tbss_end+0xa2f>
80003868:	00000693          	li	a3,0
8000386c:	00c7a023          	sw	a2,0(a5) # 80001000 <tohost>
80003870:	00d7a223          	sw	a3,4(a5)
80003874:	0000006f          	j	80003874 <handle_trap+0x18>

80003878 <exit>:
80003878:	ff010113          	addi	sp,sp,-16
8000387c:	00112623          	sw	ra,12(sp)
80003880:	fc1ff0ef          	jal	80003840 <tohost_exit>

80003884 <abort>:
80003884:	800017b7          	lui	a5,0x80001
80003888:	10d00613          	li	a2,269
8000388c:	00000693          	li	a3,0
80003890:	00c7a023          	sw	a2,0(a5) # 80001000 <tohost>
80003894:	00d7a223          	sw	a3,4(a5)
80003898:	0000006f          	j	80003898 <abort+0x14>

8000389c <printstr>:
8000389c:	00054783          	lbu	a5,0(a0)
800038a0:	f8010113          	addi	sp,sp,-128
800038a4:	03f10613          	addi	a2,sp,63
800038a8:	00050813          	mv	a6,a0
800038ac:	00000893          	li	a7,0
800038b0:	fc067613          	andi	a2,a2,-64
800038b4:	08078c63          	beqz	a5,8000394c <printstr+0xb0>
800038b8:	00050793          	mv	a5,a0
800038bc:	0017c703          	lbu	a4,1(a5)
800038c0:	00178793          	addi	a5,a5,1
800038c4:	fe071ce3          	bnez	a4,800038bc <printstr+0x20>
800038c8:	40a78333          	sub	t1,a5,a0
800038cc:	00000393          	li	t2,0
800038d0:	04000713          	li	a4,64
800038d4:	00e62023          	sw	a4,0(a2)
800038d8:	00000793          	li	a5,0
800038dc:	00f62223          	sw	a5,4(a2)
800038e0:	00100713          	li	a4,1
800038e4:	00e62423          	sw	a4,8(a2)
800038e8:	00000793          	li	a5,0
800038ec:	00f62623          	sw	a5,12(a2)
800038f0:	01062823          	sw	a6,16(a2)
800038f4:	01162a23          	sw	a7,20(a2)
800038f8:	00662c23          	sw	t1,24(a2)
800038fc:	00762e23          	sw	t2,28(a2)
80003900:	0330000f          	fence	rw,rw
80003904:	800016b7          	lui	a3,0x80001
80003908:	00c6a023          	sw	a2,0(a3) # 80001000 <tohost>
8000390c:	00000793          	li	a5,0
80003910:	00f6a223          	sw	a5,4(a3)
80003914:	800016b7          	lui	a3,0x80001
80003918:	0406a703          	lw	a4,64(a3) # 80001040 <fromhost>
8000391c:	0446a783          	lw	a5,68(a3)
80003920:	00f76733          	or	a4,a4,a5
80003924:	fe070ae3          	beqz	a4,80003918 <printstr+0x7c>
80003928:	00000793          	li	a5,0
8000392c:	04f6a023          	sw	a5,64(a3)
80003930:	00000813          	li	a6,0
80003934:	0506a223          	sw	a6,68(a3)
80003938:	0330000f          	fence	rw,rw
8000393c:	00062703          	lw	a4,0(a2)
80003940:	00462783          	lw	a5,4(a2)
80003944:	08010113          	addi	sp,sp,128
80003948:	00008067          	ret
8000394c:	00000313          	li	t1,0
80003950:	00000393          	li	t2,0
80003954:	f7dff06f          	j	800038d0 <printstr+0x34>

80003958 <thread_entry>:
80003958:	00051463          	bnez	a0,80003960 <thread_entry+0x8>
8000395c:	00008067          	ret
80003960:	0000006f          	j	80003960 <thread_entry+0x8>

80003964 <printhex>:
80003964:	fd010113          	addi	sp,sp,-48
80003968:	00050713          	mv	a4,a0
8000396c:	02112623          	sw	ra,44(sp)
80003970:	00c10513          	addi	a0,sp,12
80003974:	01b10613          	addi	a2,sp,27
80003978:	00900813          	li	a6,9
8000397c:	0080006f          	j	80003984 <printhex+0x20>
80003980:	fff60613          	addi	a2,a2,-1
80003984:	00f77693          	andi	a3,a4,15
80003988:	00d837b3          	sltu	a5,a6,a3
8000398c:	40f007b3          	neg	a5,a5
80003990:	0277f793          	andi	a5,a5,39
80003994:	03078793          	addi	a5,a5,48
80003998:	00f686b3          	add	a3,a3,a5
8000399c:	00475713          	srli	a4,a4,0x4
800039a0:	01c59793          	slli	a5,a1,0x1c
800039a4:	00d60023          	sb	a3,0(a2)
800039a8:	00e78733          	add	a4,a5,a4
800039ac:	0045d593          	srli	a1,a1,0x4
800039b0:	fcc518e3          	bne	a0,a2,80003980 <printhex+0x1c>
800039b4:	00010e23          	sb	zero,28(sp)
800039b8:	ee5ff0ef          	jal	8000389c <printstr>
800039bc:	02c12083          	lw	ra,44(sp)
800039c0:	03010113          	addi	sp,sp,48
800039c4:	00008067          	ret

800039c8 <printf>:
800039c8:	fc010113          	addi	sp,sp,-64
800039cc:	02410313          	addi	t1,sp,36
800039d0:	80003e37          	lui	t3,0x80003
800039d4:	02b12223          	sw	a1,36(sp)
800039d8:	02c12423          	sw	a2,40(sp)
800039dc:	02d12623          	sw	a3,44(sp)
800039e0:	00050613          	mv	a2,a0
800039e4:	00030693          	mv	a3,t1
800039e8:	710e0513          	addi	a0,t3,1808 # 80003710 <putchar>
800039ec:	00000593          	li	a1,0
800039f0:	00112e23          	sw	ra,28(sp)
800039f4:	02e12823          	sw	a4,48(sp)
800039f8:	02f12a23          	sw	a5,52(sp)
800039fc:	03012c23          	sw	a6,56(sp)
80003a00:	03112e23          	sw	a7,60(sp)
80003a04:	00612623          	sw	t1,12(sp)
80003a08:	821ff0ef          	jal	80003228 <vprintfmt>
80003a0c:	01c12083          	lw	ra,28(sp)
80003a10:	00000513          	li	a0,0
80003a14:	04010113          	addi	sp,sp,64
80003a18:	00008067          	ret

80003a1c <puts>:
80003a1c:	ff010113          	addi	sp,sp,-16
80003a20:	00112623          	sw	ra,12(sp)
80003a24:	fa5ff0ef          	jal	800039c8 <printf>
80003a28:	00a00513          	li	a0,10
80003a2c:	ce5ff0ef          	jal	80003710 <putchar>
80003a30:	00c12083          	lw	ra,12(sp)
80003a34:	00000513          	li	a0,0
80003a38:	01010113          	addi	sp,sp,16
80003a3c:	00008067          	ret

80003a40 <sprintf>:
80003a40:	fb010113          	addi	sp,sp,-80
80003a44:	03810313          	addi	t1,sp,56
80003a48:	80003e37          	lui	t3,0x80003
80003a4c:	02812423          	sw	s0,40(sp)
80003a50:	00a12623          	sw	a0,12(sp)
80003a54:	02c12c23          	sw	a2,56(sp)
80003a58:	02d12e23          	sw	a3,60(sp)
80003a5c:	00050413          	mv	s0,a0
80003a60:	00058613          	mv	a2,a1
80003a64:	6f8e0513          	addi	a0,t3,1784 # 800036f8 <sprintf_putch.0>
80003a68:	00c10593          	addi	a1,sp,12
80003a6c:	00030693          	mv	a3,t1
80003a70:	02112623          	sw	ra,44(sp)
80003a74:	04f12223          	sw	a5,68(sp)
80003a78:	04e12023          	sw	a4,64(sp)
80003a7c:	05012423          	sw	a6,72(sp)
80003a80:	05112623          	sw	a7,76(sp)
80003a84:	00612e23          	sw	t1,28(sp)
80003a88:	fa0ff0ef          	jal	80003228 <vprintfmt>
80003a8c:	00c12783          	lw	a5,12(sp)
80003a90:	00078023          	sb	zero,0(a5)
80003a94:	00c12503          	lw	a0,12(sp)
80003a98:	02c12083          	lw	ra,44(sp)
80003a9c:	40850533          	sub	a0,a0,s0
80003aa0:	02812403          	lw	s0,40(sp)
80003aa4:	05010113          	addi	sp,sp,80
80003aa8:	00008067          	ret

80003aac <memcpy>:
80003aac:	00c5e7b3          	or	a5,a1,a2
80003ab0:	00f567b3          	or	a5,a0,a5
80003ab4:	0037f793          	andi	a5,a5,3
80003ab8:	00c506b3          	add	a3,a0,a2
80003abc:	02078463          	beqz	a5,80003ae4 <memcpy+0x38>
80003ac0:	00c58633          	add	a2,a1,a2
80003ac4:	00050793          	mv	a5,a0
80003ac8:	02d57e63          	bgeu	a0,a3,80003b04 <memcpy+0x58>
80003acc:	0005c703          	lbu	a4,0(a1)
80003ad0:	00158593          	addi	a1,a1,1
80003ad4:	00178793          	addi	a5,a5,1
80003ad8:	fee78fa3          	sb	a4,-1(a5)
80003adc:	feb618e3          	bne	a2,a1,80003acc <memcpy+0x20>
80003ae0:	00008067          	ret
80003ae4:	fed57ee3          	bgeu	a0,a3,80003ae0 <memcpy+0x34>
80003ae8:	00050793          	mv	a5,a0
80003aec:	0005a703          	lw	a4,0(a1)
80003af0:	00478793          	addi	a5,a5,4
80003af4:	00458593          	addi	a1,a1,4
80003af8:	fee7ae23          	sw	a4,-4(a5)
80003afc:	fed7e8e3          	bltu	a5,a3,80003aec <memcpy+0x40>
80003b00:	00008067          	ret
80003b04:	00008067          	ret

80003b08 <memset>:
80003b08:	00c567b3          	or	a5,a0,a2
80003b0c:	0037f793          	andi	a5,a5,3
80003b10:	00c50633          	add	a2,a0,a2
80003b14:	00078e63          	beqz	a5,80003b30 <memset+0x28>
80003b18:	00050793          	mv	a5,a0
80003b1c:	04c57063          	bgeu	a0,a2,80003b5c <memset+0x54>
80003b20:	00178793          	addi	a5,a5,1
80003b24:	feb78fa3          	sb	a1,-1(a5)
80003b28:	fef61ce3          	bne	a2,a5,80003b20 <memset+0x18>
80003b2c:	00008067          	ret
80003b30:	fec57ee3          	bgeu	a0,a2,80003b2c <memset+0x24>
80003b34:	0ff5f593          	zext.b	a1,a1
80003b38:	00859713          	slli	a4,a1,0x8
80003b3c:	00b70733          	add	a4,a4,a1
80003b40:	01071793          	slli	a5,a4,0x10
80003b44:	00f70733          	add	a4,a4,a5
80003b48:	00050793          	mv	a5,a0
80003b4c:	00478793          	addi	a5,a5,4
80003b50:	fee7ae23          	sw	a4,-4(a5)
80003b54:	fec7ece3          	bltu	a5,a2,80003b4c <memset+0x44>
80003b58:	00008067          	ret
80003b5c:	00008067          	ret

80003b60 <_init>:
80003b60:	f6010113          	addi	sp,sp,-160
80003b64:	08812c23          	sw	s0,152(sp)
80003b68:	08912a23          	sw	s1,148(sp)
80003b6c:	00002417          	auipc	s0,0x2
80003b70:	c3c42403          	lw	s0,-964(s0) # 800057a8 <_GLOBAL_OFFSET_TABLE_+0x8>
80003b74:	00002497          	auipc	s1,0x2
80003b78:	c304a483          	lw	s1,-976(s1) # 800057a4 <_GLOBAL_OFFSET_TABLE_+0x4>
80003b7c:	09312623          	sw	s3,140(sp)
80003b80:	40848433          	sub	s0,s1,s0
80003b84:	00050993          	mv	s3,a0
80003b88:	00040613          	mv	a2,s0
80003b8c:	00020513          	mv	a0,tp
80003b90:	09412423          	sw	s4,136(sp)
80003b94:	00058a13          	mv	s4,a1
80003b98:	00818593          	addi	a1,gp,8 # 80005fc0 <_end>
80003b9c:	08112e23          	sw	ra,156(sp)
80003ba0:	09212823          	sw	s2,144(sp)
80003ba4:	09512223          	sw	s5,132(sp)
80003ba8:	00020a93          	mv	s5,tp
80003bac:	f01ff0ef          	jal	80003aac <memcpy>
80003bb0:	00002617          	auipc	a2,0x2
80003bb4:	bfc62603          	lw	a2,-1028(a2) # 800057ac <_GLOBAL_OFFSET_TABLE_+0xc>
80003bb8:	008a8533          	add	a0,s5,s0
80003bbc:	00000593          	li	a1,0
80003bc0:	40960633          	sub	a2,a2,s1
80003bc4:	f45ff0ef          	jal	80003b08 <memset>
80003bc8:	000a0593          	mv	a1,s4
80003bcc:	00098513          	mv	a0,s3
80003bd0:	d89ff0ef          	jal	80003958 <thread_entry>
80003bd4:	03f10913          	addi	s2,sp,63
80003bd8:	00000593          	li	a1,0
80003bdc:	00000513          	li	a0,0
80003be0:	80005437          	lui	s0,0x80005
80003be4:	fc097913          	andi	s2,s2,-64
80003be8:	165000ef          	jal	8000454c <main>
80003bec:	7e040413          	addi	s0,s0,2016 # 800057e0 <counters>
80003bf0:	800054b7          	lui	s1,0x80005
80003bf4:	00050a93          	mv	s5,a0
80003bf8:	00090993          	mv	s3,s2
80003bfc:	00840a13          	addi	s4,s0,8
80003c00:	7d848493          	addi	s1,s1,2008 # 800057d8 <counter_names>
80003c04:	00042683          	lw	a3,0(s0)
80003c08:	02069263          	bnez	a3,80003c2c <_init+0xcc>
80003c0c:	00440413          	addi	s0,s0,4
80003c10:	00448493          	addi	s1,s1,4
80003c14:	ff4418e3          	bne	s0,s4,80003c04 <_init+0xa4>
80003c18:	01390663          	beq	s2,s3,80003c24 <_init+0xc4>
80003c1c:	00090513          	mv	a0,s2
80003c20:	c7dff0ef          	jal	8000389c <printstr>
80003c24:	000a8513          	mv	a0,s5
80003c28:	c19ff0ef          	jal	80003840 <tohost_exit>
80003c2c:	0004a603          	lw	a2,0(s1)
80003c30:	800055b7          	lui	a1,0x80005
80003c34:	00098513          	mv	a0,s3
80003c38:	27858593          	addi	a1,a1,632 # 80005278 <main+0xd2c>
80003c3c:	e05ff0ef          	jal	80003a40 <sprintf>
80003c40:	00a989b3          	add	s3,s3,a0
80003c44:	fc9ff06f          	j	80003c0c <_init+0xac>

80003c48 <strlen>:
80003c48:	00054783          	lbu	a5,0(a0)
80003c4c:	00078e63          	beqz	a5,80003c68 <strlen+0x20>
80003c50:	00050793          	mv	a5,a0
80003c54:	0017c703          	lbu	a4,1(a5)
80003c58:	00178793          	addi	a5,a5,1
80003c5c:	fe071ce3          	bnez	a4,80003c54 <strlen+0xc>
80003c60:	40a78533          	sub	a0,a5,a0
80003c64:	00008067          	ret
80003c68:	00000513          	li	a0,0
80003c6c:	00008067          	ret

80003c70 <strnlen>:
80003c70:	00b506b3          	add	a3,a0,a1
80003c74:	00050793          	mv	a5,a0
80003c78:	00059863          	bnez	a1,80003c88 <strnlen+0x18>
80003c7c:	01c0006f          	j	80003c98 <strnlen+0x28>
80003c80:	00178793          	addi	a5,a5,1
80003c84:	00d78663          	beq	a5,a3,80003c90 <strnlen+0x20>
80003c88:	0007c703          	lbu	a4,0(a5)
80003c8c:	fe071ae3          	bnez	a4,80003c80 <strnlen+0x10>
80003c90:	40a78533          	sub	a0,a5,a0
80003c94:	00008067          	ret
80003c98:	00000513          	li	a0,0
80003c9c:	00008067          	ret

80003ca0 <strcmp>:
80003ca0:	00050713          	mv	a4,a0
80003ca4:	00074783          	lbu	a5,0(a4)
80003ca8:	0005c683          	lbu	a3,0(a1)
80003cac:	00170713          	addi	a4,a4,1
80003cb0:	00158593          	addi	a1,a1,1
80003cb4:	40d78533          	sub	a0,a5,a3
80003cb8:	00078663          	beqz	a5,80003cc4 <strcmp+0x24>
80003cbc:	fed784e3          	beq	a5,a3,80003ca4 <strcmp+0x4>
80003cc0:	00008067          	ret
80003cc4:	00008067          	ret

80003cc8 <strcpy>:
80003cc8:	00050793          	mv	a5,a0
80003ccc:	0005c703          	lbu	a4,0(a1)
80003cd0:	00158593          	addi	a1,a1,1
80003cd4:	00178793          	addi	a5,a5,1
80003cd8:	fee78fa3          	sb	a4,-1(a5)
80003cdc:	fe0718e3          	bnez	a4,80003ccc <strcpy+0x4>
80003ce0:	00008067          	ret

80003ce4 <atol>:
80003ce4:	00054703          	lbu	a4,0(a0)
80003ce8:	02000693          	li	a3,32
80003cec:	00050793          	mv	a5,a0
80003cf0:	00d71863          	bne	a4,a3,80003d00 <atol+0x1c>
80003cf4:	0017c703          	lbu	a4,1(a5)
80003cf8:	00178793          	addi	a5,a5,1
80003cfc:	fed70ce3          	beq	a4,a3,80003cf4 <atol+0x10>
80003d00:	fd570693          	addi	a3,a4,-43
80003d04:	0fd6f693          	andi	a3,a3,253
80003d08:	04069463          	bnez	a3,80003d50 <atol+0x6c>
80003d0c:	0017c683          	lbu	a3,1(a5)
80003d10:	fd370713          	addi	a4,a4,-45
80003d14:	00173613          	seqz	a2,a4
80003d18:	04068663          	beqz	a3,80003d64 <atol+0x80>
80003d1c:	00178793          	addi	a5,a5,1
80003d20:	00000513          	li	a0,0
80003d24:	00178793          	addi	a5,a5,1
80003d28:	fd068593          	addi	a1,a3,-48
80003d2c:	00251713          	slli	a4,a0,0x2
80003d30:	0007c683          	lbu	a3,0(a5)
80003d34:	00a70733          	add	a4,a4,a0
80003d38:	00171713          	slli	a4,a4,0x1
80003d3c:	00e58533          	add	a0,a1,a4
80003d40:	fe0692e3          	bnez	a3,80003d24 <atol+0x40>
80003d44:	00060463          	beqz	a2,80003d4c <atol+0x68>
80003d48:	40a00533          	neg	a0,a0
80003d4c:	00008067          	ret
80003d50:	0007c683          	lbu	a3,0(a5)
80003d54:	00000613          	li	a2,0
80003d58:	fc0694e3          	bnez	a3,80003d20 <atol+0x3c>
80003d5c:	00000513          	li	a0,0
80003d60:	00008067          	ret
80003d64:	00000513          	li	a0,0
80003d68:	fddff06f          	j	80003d44 <atol+0x60>

80003d6c <__udivdi3>:
80003d6c:	00060713          	mv	a4,a2
80003d70:	00068893          	mv	a7,a3
80003d74:	00050813          	mv	a6,a0
80003d78:	00058793          	mv	a5,a1
80003d7c:	22069063          	bnez	a3,80003f9c <__udivdi3+0x230>
80003d80:	00002317          	auipc	t1,0x2
80003d84:	8d830313          	addi	t1,t1,-1832 # 80005658 <__clz_tab>
80003d88:	0cc5fe63          	bgeu	a1,a2,80003e64 <__udivdi3+0xf8>
80003d8c:	000106b7          	lui	a3,0x10
80003d90:	0cd67063          	bgeu	a2,a3,80003e50 <__udivdi3+0xe4>
80003d94:	10063693          	sltiu	a3,a2,256
80003d98:	0016b693          	seqz	a3,a3
80003d9c:	00369693          	slli	a3,a3,0x3
80003da0:	00d65e33          	srl	t3,a2,a3
80003da4:	01c30333          	add	t1,t1,t3
80003da8:	00034303          	lbu	t1,0(t1)
80003dac:	00d306b3          	add	a3,t1,a3
80003db0:	02000313          	li	t1,32
80003db4:	00668e63          	beq	a3,t1,80003dd0 <__udivdi3+0x64>
80003db8:	40d30833          	sub	a6,t1,a3
80003dbc:	010597b3          	sll	a5,a1,a6
80003dc0:	00d556b3          	srl	a3,a0,a3
80003dc4:	01061733          	sll	a4,a2,a6
80003dc8:	00f6e7b3          	or	a5,a3,a5
80003dcc:	01051833          	sll	a6,a0,a6
80003dd0:	01075513          	srli	a0,a4,0x10
80003dd4:	02a7d633          	divu	a2,a5,a0
80003dd8:	01071593          	slli	a1,a4,0x10
80003ddc:	0105d593          	srli	a1,a1,0x10
80003de0:	02a7f7b3          	remu	a5,a5,a0
80003de4:	02c58333          	mul	t1,a1,a2
80003de8:	01079693          	slli	a3,a5,0x10
80003dec:	01085793          	srli	a5,a6,0x10
80003df0:	00f6e7b3          	or	a5,a3,a5
80003df4:	0067fa63          	bgeu	a5,t1,80003e08 <__udivdi3+0x9c>
80003df8:	00f707b3          	add	a5,a4,a5
80003dfc:	0067f463          	bgeu	a5,t1,80003e04 <__udivdi3+0x98>
80003e00:	18e7f463          	bgeu	a5,a4,80003f88 <__udivdi3+0x21c>
80003e04:	fff60613          	addi	a2,a2,-1
80003e08:	406787b3          	sub	a5,a5,t1
80003e0c:	02a7d6b3          	divu	a3,a5,a0
80003e10:	01081813          	slli	a6,a6,0x10
80003e14:	01085813          	srli	a6,a6,0x10
80003e18:	02a7f7b3          	remu	a5,a5,a0
80003e1c:	02d585b3          	mul	a1,a1,a3
80003e20:	01079793          	slli	a5,a5,0x10
80003e24:	00f86833          	or	a6,a6,a5
80003e28:	00b87a63          	bgeu	a6,a1,80003e3c <__udivdi3+0xd0>
80003e2c:	01070833          	add	a6,a4,a6
80003e30:	00b87463          	bgeu	a6,a1,80003e38 <__udivdi3+0xcc>
80003e34:	16e87063          	bgeu	a6,a4,80003f94 <__udivdi3+0x228>
80003e38:	fff68693          	addi	a3,a3,-1 # ffff <_tbss_end+0xffbb>
80003e3c:	01061613          	slli	a2,a2,0x10
80003e40:	00d66633          	or	a2,a2,a3
80003e44:	00060513          	mv	a0,a2
80003e48:	00088593          	mv	a1,a7
80003e4c:	00008067          	ret
80003e50:	01000e37          	lui	t3,0x1000
80003e54:	01800693          	li	a3,24
80003e58:	f5c674e3          	bgeu	a2,t3,80003da0 <__udivdi3+0x34>
80003e5c:	01000693          	li	a3,16
80003e60:	f41ff06f          	j	80003da0 <__udivdi3+0x34>
80003e64:	00000693          	li	a3,0
80003e68:	00060c63          	beqz	a2,80003e80 <__udivdi3+0x114>
80003e6c:	000107b7          	lui	a5,0x10
80003e70:	04f67a63          	bgeu	a2,a5,80003ec4 <__udivdi3+0x158>
80003e74:	10063693          	sltiu	a3,a2,256
80003e78:	0016b693          	seqz	a3,a3
80003e7c:	00369693          	slli	a3,a3,0x3
80003e80:	00d657b3          	srl	a5,a2,a3
80003e84:	00f30333          	add	t1,t1,a5
80003e88:	00034783          	lbu	a5,0(t1)
80003e8c:	00d787b3          	add	a5,a5,a3
80003e90:	02000693          	li	a3,32
80003e94:	04d79263          	bne	a5,a3,80003ed8 <__udivdi3+0x16c>
80003e98:	40c587b3          	sub	a5,a1,a2
80003e9c:	00100893          	li	a7,1
80003ea0:	01075513          	srli	a0,a4,0x10
80003ea4:	02a7d633          	divu	a2,a5,a0
80003ea8:	01071593          	slli	a1,a4,0x10
80003eac:	0105d593          	srli	a1,a1,0x10
80003eb0:	01085693          	srli	a3,a6,0x10
80003eb4:	02a7f7b3          	remu	a5,a5,a0
80003eb8:	02c58333          	mul	t1,a1,a2
80003ebc:	01079793          	slli	a5,a5,0x10
80003ec0:	f31ff06f          	j	80003df0 <__udivdi3+0x84>
80003ec4:	010007b7          	lui	a5,0x1000
80003ec8:	01800693          	li	a3,24
80003ecc:	faf67ae3          	bgeu	a2,a5,80003e80 <__udivdi3+0x114>
80003ed0:	01000693          	li	a3,16
80003ed4:	fadff06f          	j	80003e80 <__udivdi3+0x114>
80003ed8:	40f68833          	sub	a6,a3,a5
80003edc:	01061733          	sll	a4,a2,a6
80003ee0:	00f5d6b3          	srl	a3,a1,a5
80003ee4:	010595b3          	sll	a1,a1,a6
80003ee8:	00f557b3          	srl	a5,a0,a5
80003eec:	01051833          	sll	a6,a0,a6
80003ef0:	01075513          	srli	a0,a4,0x10
80003ef4:	02a6d8b3          	divu	a7,a3,a0
80003ef8:	00b7e7b3          	or	a5,a5,a1
80003efc:	01071593          	slli	a1,a4,0x10
80003f00:	0105d593          	srli	a1,a1,0x10
80003f04:	02a6f6b3          	remu	a3,a3,a0
80003f08:	03158333          	mul	t1,a1,a7
80003f0c:	01069613          	slli	a2,a3,0x10
80003f10:	0107d693          	srli	a3,a5,0x10
80003f14:	00c6e6b3          	or	a3,a3,a2
80003f18:	0066fa63          	bgeu	a3,t1,80003f2c <__udivdi3+0x1c0>
80003f1c:	00d706b3          	add	a3,a4,a3
80003f20:	0066f463          	bgeu	a3,t1,80003f28 <__udivdi3+0x1bc>
80003f24:	04e6f663          	bgeu	a3,a4,80003f70 <__udivdi3+0x204>
80003f28:	fff88893          	addi	a7,a7,-1
80003f2c:	406686b3          	sub	a3,a3,t1
80003f30:	02a6d633          	divu	a2,a3,a0
80003f34:	01079793          	slli	a5,a5,0x10
80003f38:	0107d793          	srli	a5,a5,0x10
80003f3c:	02a6f6b3          	remu	a3,a3,a0
80003f40:	02c585b3          	mul	a1,a1,a2
80003f44:	01069693          	slli	a3,a3,0x10
80003f48:	00d7e7b3          	or	a5,a5,a3
80003f4c:	00b7fa63          	bgeu	a5,a1,80003f60 <__udivdi3+0x1f4>
80003f50:	00f707b3          	add	a5,a4,a5
80003f54:	00b7f463          	bgeu	a5,a1,80003f5c <__udivdi3+0x1f0>
80003f58:	02e7f263          	bgeu	a5,a4,80003f7c <__udivdi3+0x210>
80003f5c:	fff60613          	addi	a2,a2,-1
80003f60:	01089893          	slli	a7,a7,0x10
80003f64:	40b787b3          	sub	a5,a5,a1
80003f68:	00c8e8b3          	or	a7,a7,a2
80003f6c:	f35ff06f          	j	80003ea0 <__udivdi3+0x134>
80003f70:	ffe88893          	addi	a7,a7,-2
80003f74:	00e686b3          	add	a3,a3,a4
80003f78:	fb5ff06f          	j	80003f2c <__udivdi3+0x1c0>
80003f7c:	ffe60613          	addi	a2,a2,-2
80003f80:	00e787b3          	add	a5,a5,a4
80003f84:	fddff06f          	j	80003f60 <__udivdi3+0x1f4>
80003f88:	ffe60613          	addi	a2,a2,-2
80003f8c:	00e787b3          	add	a5,a5,a4
80003f90:	e79ff06f          	j	80003e08 <__udivdi3+0x9c>
80003f94:	ffe68693          	addi	a3,a3,-2
80003f98:	ea5ff06f          	j	80003e3c <__udivdi3+0xd0>
80003f9c:	18d5e463          	bltu	a1,a3,80004124 <__udivdi3+0x3b8>
80003fa0:	000107b7          	lui	a5,0x10
80003fa4:	04f6f463          	bgeu	a3,a5,80003fec <__udivdi3+0x280>
80003fa8:	1006b713          	sltiu	a4,a3,256
80003fac:	00173713          	seqz	a4,a4
80003fb0:	00371713          	slli	a4,a4,0x3
80003fb4:	00e6d833          	srl	a6,a3,a4
80003fb8:	00001797          	auipc	a5,0x1
80003fbc:	6a078793          	addi	a5,a5,1696 # 80005658 <__clz_tab>
80003fc0:	010787b3          	add	a5,a5,a6
80003fc4:	0007c783          	lbu	a5,0(a5)
80003fc8:	02000813          	li	a6,32
80003fcc:	00e787b3          	add	a5,a5,a4
80003fd0:	03079863          	bne	a5,a6,80004000 <__udivdi3+0x294>
80003fd4:	00c53633          	sltu	a2,a0,a2
80003fd8:	00163613          	seqz	a2,a2
80003fdc:	00b6b6b3          	sltu	a3,a3,a1
80003fe0:	00d66633          	or	a2,a2,a3
80003fe4:	00000893          	li	a7,0
80003fe8:	e5dff06f          	j	80003e44 <__udivdi3+0xd8>
80003fec:	010007b7          	lui	a5,0x1000
80003ff0:	01800713          	li	a4,24
80003ff4:	fcf6f0e3          	bgeu	a3,a5,80003fb4 <__udivdi3+0x248>
80003ff8:	01000713          	li	a4,16
80003ffc:	fb9ff06f          	j	80003fb4 <__udivdi3+0x248>
80004000:	40f80833          	sub	a6,a6,a5
80004004:	00f658b3          	srl	a7,a2,a5
80004008:	010696b3          	sll	a3,a3,a6
8000400c:	00d8e8b3          	or	a7,a7,a3
80004010:	00f5d733          	srl	a4,a1,a5
80004014:	0108de13          	srli	t3,a7,0x10
80004018:	01061333          	sll	t1,a2,a6
8000401c:	03c75633          	divu	a2,a4,t3
80004020:	010595b3          	sll	a1,a1,a6
80004024:	00f557b3          	srl	a5,a0,a5
80004028:	00b7e7b3          	or	a5,a5,a1
8000402c:	01089593          	slli	a1,a7,0x10
80004030:	0105d593          	srli	a1,a1,0x10
80004034:	03c77733          	remu	a4,a4,t3
80004038:	02c58eb3          	mul	t4,a1,a2
8000403c:	01071693          	slli	a3,a4,0x10
80004040:	0107d713          	srli	a4,a5,0x10
80004044:	00d76733          	or	a4,a4,a3
80004048:	01d77a63          	bgeu	a4,t4,8000405c <__udivdi3+0x2f0>
8000404c:	00e88733          	add	a4,a7,a4
80004050:	01d77463          	bgeu	a4,t4,80004058 <__udivdi3+0x2ec>
80004054:	0b177c63          	bgeu	a4,a7,8000410c <__udivdi3+0x3a0>
80004058:	fff60613          	addi	a2,a2,-1
8000405c:	41d70733          	sub	a4,a4,t4
80004060:	03c756b3          	divu	a3,a4,t3
80004064:	01079793          	slli	a5,a5,0x10
80004068:	0107d793          	srli	a5,a5,0x10
8000406c:	03c77733          	remu	a4,a4,t3
80004070:	02d585b3          	mul	a1,a1,a3
80004074:	01071713          	slli	a4,a4,0x10
80004078:	00e7e7b3          	or	a5,a5,a4
8000407c:	00b7fa63          	bgeu	a5,a1,80004090 <__udivdi3+0x324>
80004080:	00f887b3          	add	a5,a7,a5
80004084:	00b7f463          	bgeu	a5,a1,8000408c <__udivdi3+0x320>
80004088:	0917f863          	bgeu	a5,a7,80004118 <__udivdi3+0x3ac>
8000408c:	fff68693          	addi	a3,a3,-1
80004090:	01061613          	slli	a2,a2,0x10
80004094:	00d66633          	or	a2,a2,a3
80004098:	01031893          	slli	a7,t1,0x10
8000409c:	01069693          	slli	a3,a3,0x10
800040a0:	0106d693          	srli	a3,a3,0x10
800040a4:	0108d893          	srli	a7,a7,0x10
800040a8:	01035313          	srli	t1,t1,0x10
800040ac:	40b787b3          	sub	a5,a5,a1
800040b0:	01065593          	srli	a1,a2,0x10
800040b4:	03168e33          	mul	t3,a3,a7
800040b8:	031588b3          	mul	a7,a1,a7
800040bc:	010e5713          	srli	a4,t3,0x10
800040c0:	026686b3          	mul	a3,a3,t1
800040c4:	011686b3          	add	a3,a3,a7
800040c8:	00d70733          	add	a4,a4,a3
800040cc:	026585b3          	mul	a1,a1,t1
800040d0:	01177663          	bgeu	a4,a7,800040dc <__udivdi3+0x370>
800040d4:	000106b7          	lui	a3,0x10
800040d8:	00d585b3          	add	a1,a1,a3
800040dc:	01075693          	srli	a3,a4,0x10
800040e0:	00b686b3          	add	a3,a3,a1
800040e4:	02d7e063          	bltu	a5,a3,80004104 <__udivdi3+0x398>
800040e8:	010e1e13          	slli	t3,t3,0x10
800040ec:	01071713          	slli	a4,a4,0x10
800040f0:	010e5e13          	srli	t3,t3,0x10
800040f4:	01051533          	sll	a0,a0,a6
800040f8:	01c70733          	add	a4,a4,t3
800040fc:	eee574e3          	bgeu	a0,a4,80003fe4 <__udivdi3+0x278>
80004100:	eed792e3          	bne	a5,a3,80003fe4 <__udivdi3+0x278>
80004104:	fff60613          	addi	a2,a2,-1
80004108:	eddff06f          	j	80003fe4 <__udivdi3+0x278>
8000410c:	ffe60613          	addi	a2,a2,-2
80004110:	01170733          	add	a4,a4,a7
80004114:	f49ff06f          	j	8000405c <__udivdi3+0x2f0>
80004118:	ffe68693          	addi	a3,a3,-2 # fffe <_tbss_end+0xffba>
8000411c:	011787b3          	add	a5,a5,a7
80004120:	f71ff06f          	j	80004090 <__udivdi3+0x324>
80004124:	00000893          	li	a7,0
80004128:	00000613          	li	a2,0
8000412c:	d19ff06f          	j	80003e44 <__udivdi3+0xd8>

80004130 <__umoddi3>:
80004130:	00060813          	mv	a6,a2
80004134:	00050793          	mv	a5,a0
80004138:	00058713          	mv	a4,a1
8000413c:	24069463          	bnez	a3,80004384 <__umoddi3+0x254>
80004140:	00001897          	auipc	a7,0x1
80004144:	51888893          	addi	a7,a7,1304 # 80005658 <__clz_tab>
80004148:	0ec5f863          	bgeu	a1,a2,80004238 <__umoddi3+0x108>
8000414c:	000106b7          	lui	a3,0x10
80004150:	0cd67a63          	bgeu	a2,a3,80004224 <__umoddi3+0xf4>
80004154:	10063693          	sltiu	a3,a2,256
80004158:	0016b693          	seqz	a3,a3
8000415c:	00369693          	slli	a3,a3,0x3
80004160:	00d65333          	srl	t1,a2,a3
80004164:	006888b3          	add	a7,a7,t1
80004168:	0008c883          	lbu	a7,0(a7)
8000416c:	02000313          	li	t1,32
80004170:	00d886b3          	add	a3,a7,a3
80004174:	40d308b3          	sub	a7,t1,a3
80004178:	00668c63          	beq	a3,t1,80004190 <__umoddi3+0x60>
8000417c:	01159733          	sll	a4,a1,a7
80004180:	00d556b3          	srl	a3,a0,a3
80004184:	01161833          	sll	a6,a2,a7
80004188:	00e6e733          	or	a4,a3,a4
8000418c:	011517b3          	sll	a5,a0,a7
80004190:	01085513          	srli	a0,a6,0x10
80004194:	02a756b3          	divu	a3,a4,a0
80004198:	01081313          	slli	t1,a6,0x10
8000419c:	01035313          	srli	t1,t1,0x10
800041a0:	02a77733          	remu	a4,a4,a0
800041a4:	026686b3          	mul	a3,a3,t1
800041a8:	01071593          	slli	a1,a4,0x10
800041ac:	0107d713          	srli	a4,a5,0x10
800041b0:	00b76733          	or	a4,a4,a1
800041b4:	02d77063          	bgeu	a4,a3,800041d4 <__umoddi3+0xa4>
800041b8:	00e80733          	add	a4,a6,a4
800041bc:	010735b3          	sltu	a1,a4,a6
800041c0:	00d73633          	sltu	a2,a4,a3
800041c4:	0015b593          	seqz	a1,a1
800041c8:	00b67633          	and	a2,a2,a1
800041cc:	03060633          	mul	a2,a2,a6
800041d0:	00e60733          	add	a4,a2,a4
800041d4:	40d70733          	sub	a4,a4,a3
800041d8:	02a756b3          	divu	a3,a4,a0
800041dc:	02a77733          	remu	a4,a4,a0
800041e0:	026686b3          	mul	a3,a3,t1
800041e4:	01079513          	slli	a0,a5,0x10
800041e8:	01071713          	slli	a4,a4,0x10
800041ec:	01055513          	srli	a0,a0,0x10
800041f0:	00e56533          	or	a0,a0,a4
800041f4:	02d57063          	bgeu	a0,a3,80004214 <__umoddi3+0xe4>
800041f8:	00a80533          	add	a0,a6,a0
800041fc:	01053733          	sltu	a4,a0,a6
80004200:	00d537b3          	sltu	a5,a0,a3
80004204:	00173713          	seqz	a4,a4
80004208:	00e7f7b3          	and	a5,a5,a4
8000420c:	030787b3          	mul	a5,a5,a6
80004210:	00a78533          	add	a0,a5,a0
80004214:	40d50533          	sub	a0,a0,a3
80004218:	01155533          	srl	a0,a0,a7
8000421c:	00000593          	li	a1,0
80004220:	00008067          	ret
80004224:	01000337          	lui	t1,0x1000
80004228:	01800693          	li	a3,24
8000422c:	f2667ae3          	bgeu	a2,t1,80004160 <__umoddi3+0x30>
80004230:	01000693          	li	a3,16
80004234:	f2dff06f          	j	80004160 <__umoddi3+0x30>
80004238:	00000713          	li	a4,0
8000423c:	00060c63          	beqz	a2,80004254 <__umoddi3+0x124>
80004240:	00010737          	lui	a4,0x10
80004244:	08e67463          	bgeu	a2,a4,800042cc <__umoddi3+0x19c>
80004248:	10063713          	sltiu	a4,a2,256
8000424c:	00173713          	seqz	a4,a4
80004250:	00371713          	slli	a4,a4,0x3
80004254:	00e656b3          	srl	a3,a2,a4
80004258:	00d888b3          	add	a7,a7,a3
8000425c:	0008c683          	lbu	a3,0(a7)
80004260:	00e686b3          	add	a3,a3,a4
80004264:	02000713          	li	a4,32
80004268:	40d708b3          	sub	a7,a4,a3
8000426c:	06e69a63          	bne	a3,a4,800042e0 <__umoddi3+0x1b0>
80004270:	40c586b3          	sub	a3,a1,a2
80004274:	01085593          	srli	a1,a6,0x10
80004278:	02b6d633          	divu	a2,a3,a1
8000427c:	01081313          	slli	t1,a6,0x10
80004280:	01035313          	srli	t1,t1,0x10
80004284:	0107d713          	srli	a4,a5,0x10
80004288:	02b6f6b3          	remu	a3,a3,a1
8000428c:	02660633          	mul	a2,a2,t1
80004290:	01069693          	slli	a3,a3,0x10
80004294:	00d76733          	or	a4,a4,a3
80004298:	02c77063          	bgeu	a4,a2,800042b8 <__umoddi3+0x188>
8000429c:	00e80733          	add	a4,a6,a4
800042a0:	01073533          	sltu	a0,a4,a6
800042a4:	00c736b3          	sltu	a3,a4,a2
800042a8:	00153513          	seqz	a0,a0
800042ac:	00a6f6b3          	and	a3,a3,a0
800042b0:	030686b3          	mul	a3,a3,a6
800042b4:	00e68733          	add	a4,a3,a4
800042b8:	40c70733          	sub	a4,a4,a2
800042bc:	02b756b3          	divu	a3,a4,a1
800042c0:	02b77733          	remu	a4,a4,a1
800042c4:	026686b3          	mul	a3,a3,t1
800042c8:	f1dff06f          	j	800041e4 <__umoddi3+0xb4>
800042cc:	010006b7          	lui	a3,0x1000
800042d0:	01800713          	li	a4,24
800042d4:	f8d670e3          	bgeu	a2,a3,80004254 <__umoddi3+0x124>
800042d8:	01000713          	li	a4,16
800042dc:	f79ff06f          	j	80004254 <__umoddi3+0x124>
800042e0:	01161833          	sll	a6,a2,a7
800042e4:	00d5d733          	srl	a4,a1,a3
800042e8:	011517b3          	sll	a5,a0,a7
800042ec:	011595b3          	sll	a1,a1,a7
800042f0:	00d556b3          	srl	a3,a0,a3
800042f4:	01085513          	srli	a0,a6,0x10
800042f8:	00b6e6b3          	or	a3,a3,a1
800042fc:	02a755b3          	divu	a1,a4,a0
80004300:	01081e13          	slli	t3,a6,0x10
80004304:	010e5e13          	srli	t3,t3,0x10
80004308:	02a77733          	remu	a4,a4,a0
8000430c:	03c585b3          	mul	a1,a1,t3
80004310:	01071613          	slli	a2,a4,0x10
80004314:	0106d713          	srli	a4,a3,0x10
80004318:	00c76733          	or	a4,a4,a2
8000431c:	02b77063          	bgeu	a4,a1,8000433c <__umoddi3+0x20c>
80004320:	00e80733          	add	a4,a6,a4
80004324:	01073333          	sltu	t1,a4,a6
80004328:	00b73633          	sltu	a2,a4,a1
8000432c:	00133313          	seqz	t1,t1
80004330:	00667633          	and	a2,a2,t1
80004334:	03060633          	mul	a2,a2,a6
80004338:	00e60733          	add	a4,a2,a4
8000433c:	40b70733          	sub	a4,a4,a1
80004340:	02a75633          	divu	a2,a4,a0
80004344:	01069693          	slli	a3,a3,0x10
80004348:	0106d693          	srli	a3,a3,0x10
8000434c:	02a77733          	remu	a4,a4,a0
80004350:	03c60633          	mul	a2,a2,t3
80004354:	01071713          	slli	a4,a4,0x10
80004358:	00e6e6b3          	or	a3,a3,a4
8000435c:	02c6f063          	bgeu	a3,a2,8000437c <__umoddi3+0x24c>
80004360:	00d806b3          	add	a3,a6,a3
80004364:	0106b5b3          	sltu	a1,a3,a6
80004368:	00c6b733          	sltu	a4,a3,a2
8000436c:	0015b593          	seqz	a1,a1
80004370:	00b77733          	and	a4,a4,a1
80004374:	03070733          	mul	a4,a4,a6
80004378:	00d706b3          	add	a3,a4,a3
8000437c:	40c686b3          	sub	a3,a3,a2
80004380:	ef5ff06f          	j	80004274 <__umoddi3+0x144>
80004384:	1ad5e663          	bltu	a1,a3,80004530 <__umoddi3+0x400>
80004388:	00010837          	lui	a6,0x10
8000438c:	0506fc63          	bgeu	a3,a6,800043e4 <__umoddi3+0x2b4>
80004390:	1006b893          	sltiu	a7,a3,256
80004394:	0018b893          	seqz	a7,a7
80004398:	00389893          	slli	a7,a7,0x3
8000439c:	0116d333          	srl	t1,a3,a7
800043a0:	00001817          	auipc	a6,0x1
800043a4:	2b880813          	addi	a6,a6,696 # 80005658 <__clz_tab>
800043a8:	00680833          	add	a6,a6,t1
800043ac:	00084803          	lbu	a6,0(a6)
800043b0:	01180833          	add	a6,a6,a7
800043b4:	02000893          	li	a7,32
800043b8:	05181063          	bne	a6,a7,800043f8 <__umoddi3+0x2c8>
800043bc:	00c57463          	bgeu	a0,a2,800043c4 <__umoddi3+0x294>
800043c0:	00b6fc63          	bgeu	a3,a1,800043d8 <__umoddi3+0x2a8>
800043c4:	40c50733          	sub	a4,a0,a2
800043c8:	00070793          	mv	a5,a4
800043cc:	40d586b3          	sub	a3,a1,a3
800043d0:	00e53733          	sltu	a4,a0,a4
800043d4:	40e68733          	sub	a4,a3,a4
800043d8:	00078513          	mv	a0,a5
800043dc:	00070593          	mv	a1,a4
800043e0:	00008067          	ret
800043e4:	01000837          	lui	a6,0x1000
800043e8:	01800893          	li	a7,24
800043ec:	fb06f8e3          	bgeu	a3,a6,8000439c <__umoddi3+0x26c>
800043f0:	01000893          	li	a7,16
800043f4:	fa9ff06f          	j	8000439c <__umoddi3+0x26c>
800043f8:	410888b3          	sub	a7,a7,a6
800043fc:	011696b3          	sll	a3,a3,a7
80004400:	01065333          	srl	t1,a2,a6
80004404:	00d36333          	or	t1,t1,a3
80004408:	0105d733          	srl	a4,a1,a6
8000440c:	01035e93          	srli	t4,t1,0x10
80004410:	03d756b3          	divu	a3,a4,t4
80004414:	01031e13          	slli	t3,t1,0x10
80004418:	010e5e13          	srli	t3,t3,0x10
8000441c:	011597b3          	sll	a5,a1,a7
80004420:	010555b3          	srl	a1,a0,a6
80004424:	00f5e5b3          	or	a1,a1,a5
80004428:	0105d793          	srli	a5,a1,0x10
8000442c:	01161633          	sll	a2,a2,a7
80004430:	01151533          	sll	a0,a0,a7
80004434:	03d77733          	remu	a4,a4,t4
80004438:	02de0f33          	mul	t5,t3,a3
8000443c:	01071713          	slli	a4,a4,0x10
80004440:	00e7e7b3          	or	a5,a5,a4
80004444:	01e7fa63          	bgeu	a5,t5,80004458 <__umoddi3+0x328>
80004448:	00f307b3          	add	a5,t1,a5
8000444c:	01e7f463          	bgeu	a5,t5,80004454 <__umoddi3+0x324>
80004450:	0e67f263          	bgeu	a5,t1,80004534 <__umoddi3+0x404>
80004454:	fff68693          	addi	a3,a3,-1 # ffffff <_tbss_end+0xffffbb>
80004458:	41e787b3          	sub	a5,a5,t5
8000445c:	03d7d733          	divu	a4,a5,t4
80004460:	01059593          	slli	a1,a1,0x10
80004464:	0105d593          	srli	a1,a1,0x10
80004468:	03d7f7b3          	remu	a5,a5,t4
8000446c:	02ee0e33          	mul	t3,t3,a4
80004470:	01079793          	slli	a5,a5,0x10
80004474:	00f5e5b3          	or	a1,a1,a5
80004478:	01c5fa63          	bgeu	a1,t3,8000448c <__umoddi3+0x35c>
8000447c:	00b305b3          	add	a1,t1,a1
80004480:	01c5f463          	bgeu	a1,t3,80004488 <__umoddi3+0x358>
80004484:	0a65fe63          	bgeu	a1,t1,80004540 <__umoddi3+0x410>
80004488:	fff70713          	addi	a4,a4,-1 # ffff <_tbss_end+0xffbb>
8000448c:	01069693          	slli	a3,a3,0x10
80004490:	00e6e6b3          	or	a3,a3,a4
80004494:	41c585b3          	sub	a1,a1,t3
80004498:	01071713          	slli	a4,a4,0x10
8000449c:	01061e13          	slli	t3,a2,0x10
800044a0:	01065793          	srli	a5,a2,0x10
800044a4:	01075713          	srli	a4,a4,0x10
800044a8:	0106d693          	srli	a3,a3,0x10
800044ac:	010e5e13          	srli	t3,t3,0x10
800044b0:	03c70eb3          	mul	t4,a4,t3
800044b4:	03c68e33          	mul	t3,a3,t3
800044b8:	02f70733          	mul	a4,a4,a5
800044bc:	02f686b3          	mul	a3,a3,a5
800044c0:	01c707b3          	add	a5,a4,t3
800044c4:	010ed713          	srli	a4,t4,0x10
800044c8:	00f70733          	add	a4,a4,a5
800044cc:	01c77663          	bgeu	a4,t3,800044d8 <__umoddi3+0x3a8>
800044d0:	000107b7          	lui	a5,0x10
800044d4:	00f686b3          	add	a3,a3,a5
800044d8:	01075793          	srli	a5,a4,0x10
800044dc:	010e9e93          	slli	t4,t4,0x10
800044e0:	01071713          	slli	a4,a4,0x10
800044e4:	010ede93          	srli	t4,t4,0x10
800044e8:	00d787b3          	add	a5,a5,a3
800044ec:	01d70733          	add	a4,a4,t4
800044f0:	00f5e663          	bltu	a1,a5,800044fc <__umoddi3+0x3cc>
800044f4:	00e57e63          	bgeu	a0,a4,80004510 <__umoddi3+0x3e0>
800044f8:	00f59c63          	bne	a1,a5,80004510 <__umoddi3+0x3e0>
800044fc:	40c70633          	sub	a2,a4,a2
80004500:	00c736b3          	sltu	a3,a4,a2
80004504:	006686b3          	add	a3,a3,t1
80004508:	00060713          	mv	a4,a2
8000450c:	40d787b3          	sub	a5,a5,a3
80004510:	40e50733          	sub	a4,a0,a4
80004514:	00e53533          	sltu	a0,a0,a4
80004518:	40f585b3          	sub	a1,a1,a5
8000451c:	40a585b3          	sub	a1,a1,a0
80004520:	01059833          	sll	a6,a1,a6
80004524:	01175733          	srl	a4,a4,a7
80004528:	00e86533          	or	a0,a6,a4
8000452c:	0115d5b3          	srl	a1,a1,a7
80004530:	00008067          	ret
80004534:	ffe68693          	addi	a3,a3,-2
80004538:	006787b3          	add	a5,a5,t1
8000453c:	f1dff06f          	j	80004458 <__umoddi3+0x328>
80004540:	ffe70713          	addi	a4,a4,-2
80004544:	006585b3          	add	a1,a1,t1
80004548:	f45ff06f          	j	8000448c <__umoddi3+0x35c>

Disassembly of section .text.startup:

8000454c <main>:
8000454c:	f8010113          	addi	sp,sp,-128
80004550:	00810613          	addi	a2,sp,8
80004554:	00410593          	addi	a1,sp,4
80004558:	04e10513          	addi	a0,sp,78
8000455c:	06112e23          	sw	ra,124(sp)
80004560:	06812c23          	sw	s0,120(sp)
80004564:	06912a23          	sw	s1,116(sp)
80004568:	07212823          	sw	s2,112(sp)
8000456c:	07312623          	sw	s3,108(sp)
80004570:	07412423          	sw	s4,104(sp)
80004574:	07612023          	sw	s6,96(sp)
80004578:	00012223          	sw	zero,4(sp)
8000457c:	c99fe0ef          	jal	80003214 <portable_init>
80004580:	00100513          	li	a0,1
80004584:	a28fe0ef          	jal	800027ac <get_seed_32>
80004588:	00a11623          	sh	a0,12(sp)
8000458c:	00200513          	li	a0,2
80004590:	a1cfe0ef          	jal	800027ac <get_seed_32>
80004594:	00a11723          	sh	a0,14(sp)
80004598:	00300513          	li	a0,3
8000459c:	a10fe0ef          	jal	800027ac <get_seed_32>
800045a0:	00a11823          	sh	a0,16(sp)
800045a4:	00400513          	li	a0,4
800045a8:	a04fe0ef          	jal	800027ac <get_seed_32>
800045ac:	02a12423          	sw	a0,40(sp)
800045b0:	00500513          	li	a0,5
800045b4:	9f8fe0ef          	jal	800027ac <get_seed_32>
800045b8:	00051463          	bnez	a0,800045c0 <main+0x74>
800045bc:	00700513          	li	a0,7
800045c0:	00c12783          	lw	a5,12(sp)
800045c4:	02a12623          	sw	a0,44(sp)
800045c8:	34078a63          	beqz	a5,8000491c <main+0x3d0>
800045cc:	00100713          	li	a4,1
800045d0:	68e78063          	beq	a5,a4,80004c50 <main+0x704>
800045d4:	80005837          	lui	a6,0x80005
800045d8:	00257793          	andi	a5,a0,2
800045dc:	00f037b3          	snez	a5,a5
800045e0:	7e880813          	addi	a6,a6,2024 # 800057e8 <static_memblk>
800045e4:	00157713          	andi	a4,a0,1
800045e8:	00f70733          	add	a4,a4,a5
800045ec:	04011623          	sh	zero,76(sp)
800045f0:	01012a23          	sw	a6,20(sp)
800045f4:	00457793          	andi	a5,a0,4
800045f8:	00078863          	beqz	a5,80004608 <main+0xbc>
800045fc:	00170713          	addi	a4,a4,1
80004600:	01071713          	slli	a4,a4,0x10
80004604:	01075713          	srli	a4,a4,0x10
80004608:	7d000593          	li	a1,2000
8000460c:	02e5d5b3          	divu	a1,a1,a4
80004610:	00c10693          	addi	a3,sp,12
80004614:	00000793          	li	a5,0
80004618:	00000613          	li	a2,0
8000461c:	00100313          	li	t1,1
80004620:	00300893          	li	a7,3
80004624:	02b12223          	sw	a1,36(sp)
80004628:	00f31733          	sll	a4,t1,a5
8000462c:	00a77733          	and	a4,a4,a0
80004630:	00178793          	addi	a5,a5,1 # 10001 <_tbss_end+0xffbd>
80004634:	14071c63          	bnez	a4,8000478c <main+0x240>
80004638:	00468693          	addi	a3,a3,4
8000463c:	ff1796e3          	bne	a5,a7,80004628 <main+0xdc>
80004640:	02c12783          	lw	a5,44(sp)
80004644:	0017f713          	andi	a4,a5,1
80004648:	00070e63          	beqz	a4,80004664 <main+0x118>
8000464c:	00c11603          	lh	a2,12(sp)
80004650:	01812583          	lw	a1,24(sp)
80004654:	02412503          	lw	a0,36(sp)
80004658:	998fd0ef          	jal	800017f0 <core_list_init>
8000465c:	02c12783          	lw	a5,44(sp)
80004660:	02a12823          	sw	a0,48(sp)
80004664:	0027f713          	andi	a4,a5,2
80004668:	0e071e63          	bnez	a4,80004764 <main+0x218>
8000466c:	0047f793          	andi	a5,a5,4
80004670:	00078a63          	beqz	a5,80004684 <main+0x138>
80004674:	02012603          	lw	a2,32(sp)
80004678:	00c11583          	lh	a1,12(sp)
8000467c:	02412503          	lw	a0,36(sp)
80004680:	b51fd0ef          	jal	800021d0 <core_init_state>
80004684:	02812783          	lw	a5,40(sp)
80004688:	04079a63          	bnez	a5,800046dc <main+0x190>
8000468c:	00100793          	li	a5,1
80004690:	02f12423          	sw	a5,40(sp)
80004694:	02812703          	lw	a4,40(sp)
80004698:	00271793          	slli	a5,a4,0x2
8000469c:	00e787b3          	add	a5,a5,a4
800046a0:	00179793          	slli	a5,a5,0x1
800046a4:	02f12423          	sw	a5,40(sp)
800046a8:	b1dfe0ef          	jal	800031c4 <start_time>
800046ac:	00c10513          	addi	a0,sp,12
800046b0:	aa0fd0ef          	jal	80001950 <iterate>
800046b4:	b21fe0ef          	jal	800031d4 <stop_time>
800046b8:	b2dfe0ef          	jal	800031e4 <get_time>
800046bc:	b41fe0ef          	jal	800031fc <time_in_secs>
800046c0:	fc050ae3          	beqz	a0,80004694 <main+0x148>
800046c4:	00a00793          	li	a5,10
800046c8:	02a7d7b3          	divu	a5,a5,a0
800046cc:	02812703          	lw	a4,40(sp)
800046d0:	00178793          	addi	a5,a5,1
800046d4:	02f707b3          	mul	a5,a4,a5
800046d8:	02f12423          	sw	a5,40(sp)
800046dc:	ae9fe0ef          	jal	800031c4 <start_time>
800046e0:	00c10513          	addi	a0,sp,12
800046e4:	a6cfd0ef          	jal	80001950 <iterate>
800046e8:	aedfe0ef          	jal	800031d4 <stop_time>
800046ec:	af9fe0ef          	jal	800031e4 <get_time>
800046f0:	00050993          	mv	s3,a0
800046f4:	00c11503          	lh	a0,12(sp)
800046f8:	00000593          	li	a1,0
800046fc:	889fe0ef          	jal	80002f84 <crc16>
80004700:	00050593          	mv	a1,a0
80004704:	00e11503          	lh	a0,14(sp)
80004708:	87dfe0ef          	jal	80002f84 <crc16>
8000470c:	00050593          	mv	a1,a0
80004710:	01011503          	lh	a0,16(sp)
80004714:	871fe0ef          	jal	80002f84 <crc16>
80004718:	00050593          	mv	a1,a0
8000471c:	02411503          	lh	a0,36(sp)
80004720:	865fe0ef          	jal	80002f84 <crc16>
80004724:	000087b7          	lui	a5,0x8
80004728:	b0578793          	addi	a5,a5,-1275 # 7b05 <_tbss_end+0x7ac1>
8000472c:	00050a13          	mv	s4,a0
80004730:	4ef50c63          	beq	a0,a5,80004c28 <main+0x6dc>
80004734:	06a7fa63          	bgeu	a5,a0,800047a8 <main+0x25c>
80004738:	000097b7          	lui	a5,0x9
8000473c:	a0278793          	addi	a5,a5,-1534 # 8a02 <_tbss_end+0x89be>
80004740:	4ef50e63          	beq	a0,a5,80004c3c <main+0x6f0>
80004744:	0000f7b7          	lui	a5,0xf
80004748:	9f578793          	addi	a5,a5,-1547 # e9f5 <_tbss_end+0xe9b1>
8000474c:	1ef51263          	bne	a0,a5,80004930 <main+0x3e4>
80004750:	80005537          	lui	a0,0x80005
80004754:	d3450513          	addi	a0,a0,-716 # 80004d34 <main+0x7e8>
80004758:	ac4ff0ef          	jal	80003a1c <puts>
8000475c:	00300793          	li	a5,3
80004760:	0700006f          	j	800047d0 <main+0x284>
80004764:	00e11783          	lh	a5,14(sp)
80004768:	00c11603          	lh	a2,12(sp)
8000476c:	01c12583          	lw	a1,28(sp)
80004770:	02412503          	lw	a0,36(sp)
80004774:	01079793          	slli	a5,a5,0x10
80004778:	00c7e633          	or	a2,a5,a2
8000477c:	03410693          	addi	a3,sp,52
80004780:	a58fd0ef          	jal	800019d8 <core_init_matrix>
80004784:	02c12783          	lw	a5,44(sp)
80004788:	ee5ff06f          	j	8000466c <main+0x120>
8000478c:	02b60733          	mul	a4,a2,a1
80004790:	00160613          	addi	a2,a2,1
80004794:	01061613          	slli	a2,a2,0x10
80004798:	01065613          	srli	a2,a2,0x10
8000479c:	00e80733          	add	a4,a6,a4
800047a0:	00e6a623          	sw	a4,12(a3)
800047a4:	e95ff06f          	j	80004638 <main+0xec>
800047a8:	000027b7          	lui	a5,0x2
800047ac:	8f278793          	addi	a5,a5,-1806 # 18f2 <_tbss_end+0x18ae>
800047b0:	46f50263          	beq	a0,a5,80004c14 <main+0x6c8>
800047b4:	000057b7          	lui	a5,0x5
800047b8:	eaf78793          	addi	a5,a5,-337 # 4eaf <_tbss_end+0x4e6b>
800047bc:	16f51a63          	bne	a0,a5,80004930 <main+0x3e4>
800047c0:	80005537          	lui	a0,0x80005
800047c4:	d0450513          	addi	a0,a0,-764 # 80004d04 <main+0x7b8>
800047c8:	a54ff0ef          	jal	80003a1c <puts>
800047cc:	00200793          	li	a5,2
800047d0:	80005b37          	lui	s6,0x80005
800047d4:	7b8b2703          	lw	a4,1976(s6) # 800057b8 <default_num_contexts>
800047d8:	48070c63          	beqz	a4,80004c70 <main+0x724>
800047dc:	05812c23          	sw	s8,88(sp)
800047e0:	80005c37          	lui	s8,0x80005
800047e4:	00179793          	slli	a5,a5,0x1
800047e8:	284c0c13          	addi	s8,s8,644 # 80005284 <list_known_crc>
800047ec:	00fc0c33          	add	s8,s8,a5
800047f0:	800057b7          	lui	a5,0x80005
800047f4:	07512223          	sw	s5,100(sp)
800047f8:	05712e23          	sw	s7,92(sp)
800047fc:	05912a23          	sw	s9,84(sp)
80004800:	00000b93          	li	s7,0
80004804:	d8c78c93          	addi	s9,a5,-628 # 80004d8c <main+0x840>
80004808:	00000913          	li	s2,0
8000480c:	80005ab7          	lui	s5,0x80005
80004810:	0280006f          	j	80004838 <main+0x2ec>
80004814:	00240433          	add	s0,s0,sp
80004818:	04c45783          	lhu	a5,76(s0)
8000481c:	017784b3          	add	s1,a5,s7
80004820:	00190913          	addi	s2,s2,1
80004824:	7b8b2783          	lw	a5,1976(s6)
80004828:	01091913          	slli	s2,s2,0x10
8000482c:	01095913          	srli	s2,s2,0x10
80004830:	00048b93          	mv	s7,s1
80004834:	0cf97a63          	bgeu	s2,a5,80004908 <main+0x3bc>
80004838:	00491413          	slli	s0,s2,0x4
8000483c:	012404b3          	add	s1,s0,s2
80004840:	00249493          	slli	s1,s1,0x2
80004844:	05048793          	addi	a5,s1,80
80004848:	002784b3          	add	s1,a5,sp
8000484c:	fdc4a783          	lw	a5,-36(s1)
80004850:	fe049e23          	sh	zero,-4(s1)
80004854:	0017f713          	andi	a4,a5,1
80004858:	02070663          	beqz	a4,80004884 <main+0x338>
8000485c:	ff64d603          	lhu	a2,-10(s1)
80004860:	000c5683          	lhu	a3,0(s8)
80004864:	02d60063          	beq	a2,a3,80004884 <main+0x338>
80004868:	00090593          	mv	a1,s2
8000486c:	000c8513          	mv	a0,s9
80004870:	958ff0ef          	jal	800039c8 <printf>
80004874:	ffc4d703          	lhu	a4,-4(s1)
80004878:	fdc4a783          	lw	a5,-36(s1)
8000487c:	00170713          	addi	a4,a4,1
80004880:	fee49e23          	sh	a4,-4(s1)
80004884:	0027f713          	andi	a4,a5,2
80004888:	02070e63          	beqz	a4,800048c4 <main+0x378>
8000488c:	012404b3          	add	s1,s0,s2
80004890:	00249493          	slli	s1,s1,0x2
80004894:	05048713          	addi	a4,s1,80
80004898:	002704b3          	add	s1,a4,sp
8000489c:	ff84d603          	lhu	a2,-8(s1)
800048a0:	00cc5683          	lhu	a3,12(s8)
800048a4:	02d60063          	beq	a2,a3,800048c4 <main+0x378>
800048a8:	00090593          	mv	a1,s2
800048ac:	dbca8513          	addi	a0,s5,-580 # 80004dbc <main+0x870>
800048b0:	918ff0ef          	jal	800039c8 <printf>
800048b4:	ffc4d703          	lhu	a4,-4(s1)
800048b8:	fdc4a783          	lw	a5,-36(s1)
800048bc:	00170713          	addi	a4,a4,1
800048c0:	fee49e23          	sh	a4,-4(s1)
800048c4:	01240433          	add	s0,s0,s2
800048c8:	0047f793          	andi	a5,a5,4
800048cc:	00241413          	slli	s0,s0,0x2
800048d0:	f40782e3          	beqz	a5,80004814 <main+0x2c8>
800048d4:	05040793          	addi	a5,s0,80
800048d8:	00278433          	add	s0,a5,sp
800048dc:	ffa45603          	lhu	a2,-6(s0)
800048e0:	018c5683          	lhu	a3,24(s8)
800048e4:	2ad61463          	bne	a2,a3,80004b8c <main+0x640>
800048e8:	ffc45783          	lhu	a5,-4(s0)
800048ec:	00190913          	addi	s2,s2,1
800048f0:	01091913          	slli	s2,s2,0x10
800048f4:	017784b3          	add	s1,a5,s7
800048f8:	7b8b2783          	lw	a5,1976(s6)
800048fc:	01095913          	srli	s2,s2,0x10
80004900:	00048b93          	mv	s7,s1
80004904:	f2f96ae3          	bltu	s2,a5,80004838 <main+0x2ec>
80004908:	06412a83          	lw	s5,100(sp)
8000490c:	05c12b83          	lw	s7,92(sp)
80004910:	05812c03          	lw	s8,88(sp)
80004914:	05412c83          	lw	s9,84(sp)
80004918:	0240006f          	j	8000493c <main+0x3f0>
8000491c:	01011783          	lh	a5,16(sp)
80004920:	ca079ae3          	bnez	a5,800045d4 <main+0x88>
80004924:	06600793          	li	a5,102
80004928:	00f11823          	sh	a5,16(sp)
8000492c:	ca9ff06f          	j	800045d4 <main+0x88>
80004930:	000107b7          	lui	a5,0x10
80004934:	fff78493          	addi	s1,a5,-1 # ffff <_tbss_end+0xffbb>
80004938:	80005b37          	lui	s6,0x80005
8000493c:	875fe0ef          	jal	800031b0 <check_data_types>
80004940:	02412583          	lw	a1,36(sp)
80004944:	009504b3          	add	s1,a0,s1
80004948:	80005537          	lui	a0,0x80005
8000494c:	e2050513          	addi	a0,a0,-480 # 80004e20 <main+0x8d4>
80004950:	878ff0ef          	jal	800039c8 <printf>
80004954:	80005537          	lui	a0,0x80005
80004958:	00098593          	mv	a1,s3
8000495c:	e3850513          	addi	a0,a0,-456 # 80004e38 <main+0x8ec>
80004960:	868ff0ef          	jal	800039c8 <printf>
80004964:	00098513          	mv	a0,s3
80004968:	895fe0ef          	jal	800031fc <time_in_secs>
8000496c:	00050593          	mv	a1,a0
80004970:	80005537          	lui	a0,0x80005
80004974:	e5050513          	addi	a0,a0,-432 # 80004e50 <main+0x904>
80004978:	850ff0ef          	jal	800039c8 <printf>
8000497c:	00098513          	mv	a0,s3
80004980:	87dfe0ef          	jal	800031fc <time_in_secs>
80004984:	24051263          	bnez	a0,80004bc8 <main+0x67c>
80004988:	00098513          	mv	a0,s3
8000498c:	871fe0ef          	jal	800031fc <time_in_secs>
80004990:	00900793          	li	a5,9
80004994:	22a7f063          	bgeu	a5,a0,80004bb4 <main+0x668>
80004998:	7b8b2783          	lw	a5,1976(s6) # 800057b8 <default_num_contexts>
8000499c:	02812583          	lw	a1,40(sp)
800049a0:	80005537          	lui	a0,0x80005
800049a4:	ec050513          	addi	a0,a0,-320 # 80004ec0 <main+0x974>
800049a8:	02f585b3          	mul	a1,a1,a5
800049ac:	01049493          	slli	s1,s1,0x10
800049b0:	4104d493          	srai	s1,s1,0x10
800049b4:	814ff0ef          	jal	800039c8 <printf>
800049b8:	800055b7          	lui	a1,0x80005
800049bc:	80005537          	lui	a0,0x80005
800049c0:	ed858593          	addi	a1,a1,-296 # 80004ed8 <main+0x98c>
800049c4:	ee450513          	addi	a0,a0,-284 # 80004ee4 <main+0x998>
800049c8:	800ff0ef          	jal	800039c8 <printf>
800049cc:	800055b7          	lui	a1,0x80005
800049d0:	80005537          	lui	a0,0x80005
800049d4:	efc58593          	addi	a1,a1,-260 # 80004efc <main+0x9b0>
800049d8:	fb450513          	addi	a0,a0,-76 # 80004fb4 <main+0xa68>
800049dc:	fedfe0ef          	jal	800039c8 <printf>
800049e0:	800055b7          	lui	a1,0x80005
800049e4:	80005537          	lui	a0,0x80005
800049e8:	fcc58593          	addi	a1,a1,-52 # 80004fcc <main+0xa80>
800049ec:	01c50513          	addi	a0,a0,28 # 8000501c <main+0xad0>
800049f0:	fd9fe0ef          	jal	800039c8 <printf>
800049f4:	80005537          	lui	a0,0x80005
800049f8:	000a0593          	mv	a1,s4
800049fc:	03450513          	addi	a0,a0,52 # 80005034 <main+0xae8>
80004a00:	fc9fe0ef          	jal	800039c8 <printf>
80004a04:	02c12783          	lw	a5,44(sp)
80004a08:	0017f713          	andi	a4,a5,1
80004a0c:	04070863          	beqz	a4,80004a5c <main+0x510>
80004a10:	7b8b2703          	lw	a4,1976(s6)
80004a14:	04070463          	beqz	a4,80004a5c <main+0x510>
80004a18:	80005937          	lui	s2,0x80005
80004a1c:	05090913          	addi	s2,s2,80 # 80005050 <main+0xb04>
80004a20:	00000413          	li	s0,0
80004a24:	00441793          	slli	a5,s0,0x4
80004a28:	008787b3          	add	a5,a5,s0
80004a2c:	00279793          	slli	a5,a5,0x2
80004a30:	002787b3          	add	a5,a5,sp
80004a34:	0467d603          	lhu	a2,70(a5)
80004a38:	00040593          	mv	a1,s0
80004a3c:	00090513          	mv	a0,s2
80004a40:	f89fe0ef          	jal	800039c8 <printf>
80004a44:	00140413          	addi	s0,s0,1
80004a48:	7b8b2783          	lw	a5,1976(s6)
80004a4c:	01041413          	slli	s0,s0,0x10
80004a50:	01045413          	srli	s0,s0,0x10
80004a54:	fcf468e3          	bltu	s0,a5,80004a24 <main+0x4d8>
80004a58:	02c12783          	lw	a5,44(sp)
80004a5c:	0027f713          	andi	a4,a5,2
80004a60:	04070863          	beqz	a4,80004ab0 <main+0x564>
80004a64:	7b8b2703          	lw	a4,1976(s6)
80004a68:	20070863          	beqz	a4,80004c78 <main+0x72c>
80004a6c:	80005937          	lui	s2,0x80005
80004a70:	06c90913          	addi	s2,s2,108 # 8000506c <main+0xb20>
80004a74:	00000413          	li	s0,0
80004a78:	00441793          	slli	a5,s0,0x4
80004a7c:	008787b3          	add	a5,a5,s0
80004a80:	00279793          	slli	a5,a5,0x2
80004a84:	002787b3          	add	a5,a5,sp
80004a88:	0487d603          	lhu	a2,72(a5)
80004a8c:	00040593          	mv	a1,s0
80004a90:	00090513          	mv	a0,s2
80004a94:	f35fe0ef          	jal	800039c8 <printf>
80004a98:	00140413          	addi	s0,s0,1
80004a9c:	7b8b2783          	lw	a5,1976(s6)
80004aa0:	01041413          	slli	s0,s0,0x10
80004aa4:	01045413          	srli	s0,s0,0x10
80004aa8:	fcf468e3          	bltu	s0,a5,80004a78 <main+0x52c>
80004aac:	02c12783          	lw	a5,44(sp)
80004ab0:	0047f793          	andi	a5,a5,4
80004ab4:	04078663          	beqz	a5,80004b00 <main+0x5b4>
80004ab8:	7b8b2783          	lw	a5,1976(s6)
80004abc:	08078663          	beqz	a5,80004b48 <main+0x5fc>
80004ac0:	80005937          	lui	s2,0x80005
80004ac4:	08890913          	addi	s2,s2,136 # 80005088 <main+0xb3c>
80004ac8:	00000413          	li	s0,0
80004acc:	00441793          	slli	a5,s0,0x4
80004ad0:	008787b3          	add	a5,a5,s0
80004ad4:	00279793          	slli	a5,a5,0x2
80004ad8:	002787b3          	add	a5,a5,sp
80004adc:	04a7d603          	lhu	a2,74(a5)
80004ae0:	00040593          	mv	a1,s0
80004ae4:	00090513          	mv	a0,s2
80004ae8:	ee1fe0ef          	jal	800039c8 <printf>
80004aec:	00140413          	addi	s0,s0,1
80004af0:	7b8b2783          	lw	a5,1976(s6)
80004af4:	01041413          	slli	s0,s0,0x10
80004af8:	01045413          	srli	s0,s0,0x10
80004afc:	fcf468e3          	bltu	s0,a5,80004acc <main+0x580>
80004b00:	7b8b2783          	lw	a5,1976(s6)
80004b04:	80005937          	lui	s2,0x80005
80004b08:	0a490913          	addi	s2,s2,164 # 800050a4 <main+0xb58>
80004b0c:	00000413          	li	s0,0
80004b10:	02078c63          	beqz	a5,80004b48 <main+0x5fc>
80004b14:	00441793          	slli	a5,s0,0x4
80004b18:	008787b3          	add	a5,a5,s0
80004b1c:	00279793          	slli	a5,a5,0x2
80004b20:	002787b3          	add	a5,a5,sp
80004b24:	0447d603          	lhu	a2,68(a5)
80004b28:	00040593          	mv	a1,s0
80004b2c:	00090513          	mv	a0,s2
80004b30:	e99fe0ef          	jal	800039c8 <printf>
80004b34:	00140413          	addi	s0,s0,1
80004b38:	7b8b2783          	lw	a5,1976(s6)
80004b3c:	01041413          	slli	s0,s0,0x10
80004b40:	01045413          	srli	s0,s0,0x10
80004b44:	fcf468e3          	bltu	s0,a5,80004b14 <main+0x5c8>
80004b48:	0a048663          	beqz	s1,80004bf4 <main+0x6a8>
80004b4c:	0a905c63          	blez	s1,80004c04 <main+0x6b8>
80004b50:	80005537          	lui	a0,0x80005
80004b54:	16c50513          	addi	a0,a0,364 # 8000516c <main+0xc20>
80004b58:	ec5fe0ef          	jal	80003a1c <puts>
80004b5c:	04e10513          	addi	a0,sp,78
80004b60:	ec0fe0ef          	jal	80003220 <portable_fini>
80004b64:	07c12083          	lw	ra,124(sp)
80004b68:	07812403          	lw	s0,120(sp)
80004b6c:	07412483          	lw	s1,116(sp)
80004b70:	07012903          	lw	s2,112(sp)
80004b74:	06c12983          	lw	s3,108(sp)
80004b78:	06812a03          	lw	s4,104(sp)
80004b7c:	06012b03          	lw	s6,96(sp)
80004b80:	00000513          	li	a0,0
80004b84:	08010113          	addi	sp,sp,128
80004b88:	00008067          	ret
80004b8c:	80005537          	lui	a0,0x80005
80004b90:	df050513          	addi	a0,a0,-528 # 80004df0 <main+0x8a4>
80004b94:	00090593          	mv	a1,s2
80004b98:	e31fe0ef          	jal	800039c8 <printf>
80004b9c:	ffc45783          	lhu	a5,-4(s0)
80004ba0:	00178793          	addi	a5,a5,1
80004ba4:	01079793          	slli	a5,a5,0x10
80004ba8:	0107d793          	srli	a5,a5,0x10
80004bac:	fef41e23          	sh	a5,-4(s0)
80004bb0:	c6dff06f          	j	8000481c <main+0x2d0>
80004bb4:	80005537          	lui	a0,0x80005
80004bb8:	e8050513          	addi	a0,a0,-384 # 80004e80 <main+0x934>
80004bbc:	e61fe0ef          	jal	80003a1c <puts>
80004bc0:	00148493          	addi	s1,s1,1
80004bc4:	dd5ff06f          	j	80004998 <main+0x44c>
80004bc8:	02812403          	lw	s0,40(sp)
80004bcc:	7b8b2783          	lw	a5,1976(s6)
80004bd0:	00098513          	mv	a0,s3
80004bd4:	02f40433          	mul	s0,s0,a5
80004bd8:	e24fe0ef          	jal	800031fc <time_in_secs>
80004bdc:	00050593          	mv	a1,a0
80004be0:	80005537          	lui	a0,0x80005
80004be4:	e6850513          	addi	a0,a0,-408 # 80004e68 <main+0x91c>
80004be8:	02b455b3          	divu	a1,s0,a1
80004bec:	dddfe0ef          	jal	800039c8 <printf>
80004bf0:	d99ff06f          	j	80004988 <main+0x43c>
80004bf4:	80005537          	lui	a0,0x80005
80004bf8:	0c050513          	addi	a0,a0,192 # 800050c0 <main+0xb74>
80004bfc:	e21fe0ef          	jal	80003a1c <puts>
80004c00:	f5dff06f          	j	80004b5c <main+0x610>
80004c04:	80005537          	lui	a0,0x80005
80004c08:	10850513          	addi	a0,a0,264 # 80005108 <main+0xbbc>
80004c0c:	e11fe0ef          	jal	80003a1c <puts>
80004c10:	f4dff06f          	j	80004b5c <main+0x610>
80004c14:	80005537          	lui	a0,0x80005
80004c18:	d6050513          	addi	a0,a0,-672 # 80004d60 <main+0x814>
80004c1c:	e01fe0ef          	jal	80003a1c <puts>
80004c20:	00400793          	li	a5,4
80004c24:	badff06f          	j	800047d0 <main+0x284>
80004c28:	80005537          	lui	a0,0x80005
80004c2c:	cd450513          	addi	a0,a0,-812 # 80004cd4 <main+0x788>
80004c30:	dedfe0ef          	jal	80003a1c <puts>
80004c34:	00100793          	li	a5,1
80004c38:	b99ff06f          	j	800047d0 <main+0x284>
80004c3c:	80005537          	lui	a0,0x80005
80004c40:	ca850513          	addi	a0,a0,-856 # 80004ca8 <main+0x75c>
80004c44:	dd9fe0ef          	jal	80003a1c <puts>
80004c48:	00000793          	li	a5,0
80004c4c:	b85ff06f          	j	800047d0 <main+0x284>
80004c50:	01011783          	lh	a5,16(sp)
80004c54:	980790e3          	bnez	a5,800045d4 <main+0x88>
80004c58:	341537b7          	lui	a5,0x34153
80004c5c:	41578793          	addi	a5,a5,1045 # 34153415 <_tbss_end+0x341533d1>
80004c60:	06600713          	li	a4,102
80004c64:	00f12623          	sw	a5,12(sp)
80004c68:	00e11823          	sh	a4,16(sp)
80004c6c:	969ff06f          	j	800045d4 <main+0x88>
80004c70:	00000493          	li	s1,0
80004c74:	cc9ff06f          	j	8000493c <main+0x3f0>
80004c78:	0047f793          	andi	a5,a5,4
80004c7c:	e80782e3          	beqz	a5,80004b00 <main+0x5b4>
80004c80:	ec9ff06f          	j	80004b48 <main+0x5fc>
80004c84:	80005537          	lui	a0,0x80005
80004c88:	ff010113          	addi	sp,sp,-16
80004c8c:	26050513          	addi	a0,a0,608 # 80005260 <main+0xd14>
80004c90:	00112623          	sw	ra,12(sp)
80004c94:	c09fe0ef          	jal	8000389c <printstr>
80004c98:	00c12083          	lw	ra,12(sp)
80004c9c:	fff00513          	li	a0,-1
80004ca0:	01010113          	addi	sp,sp,16
80004ca4:	00008067          	ret
